
build/telosb/main.exe:     file format elf32-msp430


Disassembly of section .text:

00004000 <__watchdog_support>:
    4000:	55 42 20 01 	mov.b	&0x0120,r5	
    4004:	35 d0 08 5a 	bis	#23048,	r5	;#0x5a08
    4008:	82 45 16 18 	mov	r5,	&0x1816	

0000400c <__init_stack>:
    400c:	31 40 00 39 	mov	#14592,	r1	;#0x3900

00004010 <__do_copy_data>:
    4010:	3f 40 1a 00 	mov	#26,	r15	;#0x001a
    4014:	0f 93       	tst	r15		
    4016:	08 24       	jz	$+18     	;abs 0x4028
    4018:	92 42 16 18 20 01 	mov	&0x1816,&0x0120	
    401e:	2f 83       	decd	r15		
    4020:	9f 4f c0 79 00 11 	mov	31168(r15),4352(r15);0x79c0(r15), 0x1100(r15)
    4026:	f8 23       	jnz	$-14     	;abs 0x4018

00004028 <__do_clear_bss>:
    4028:	3f 40 fc 06 	mov	#1788,	r15	;#0x06fc
    402c:	0f 93       	tst	r15		
    402e:	07 24       	jz	$+16     	;abs 0x403e
    4030:	92 42 16 18 20 01 	mov	&0x1816,&0x0120	
    4036:	1f 83       	dec	r15		
    4038:	cf 43 1a 11 	mov.b	#0,	4378(r15);r3 As==00, 0x111a(r15)
    403c:	f9 23       	jnz	$-12     	;abs 0x4030

0000403e <main>:
    403e:	21 83       	decd	r1		
    4040:	0b 42       	mov	r2,	r11	
    4042:	3b f2       	and	#8,	r11	;r2 As==11
    4044:	32 c2       	dint			
    4046:	03 43       	nop			
    4048:	3d 40 15 00 	mov	#21,	r13	;#0x0015
    404c:	3e 40 ff 00 	mov	#255,	r14	;#0x00ff
    4050:	3f 40 78 11 	mov	#4472,	r15	;#0x1178
    4054:	b0 12 d0 78 	call	#0x78d0	
    4058:	f2 43 e9 17 	mov.b	#-1,	&0x17e9	;r3 As==11
    405c:	f2 43 0f 18 	mov.b	#-1,	&0x180f	;r3 As==11
    4060:	b2 40 80 5a 20 01 	mov	#23168,	&0x0120	;#0x5a80
    4066:	a2 42 60 01 	mov	#4,	&0x0160	;r2 As==10
    406a:	a2 42 80 01 	mov	#4,	&0x0180	;r2 As==10
    406e:	b2 40 20 02 60 01 	mov	#544,	&0x0160	;#0x0220
    4074:	b2 40 20 01 80 01 	mov	#288,	&0x0180	;#0x0120
    407a:	f2 40 84 ff 57 00 	mov.b	#-124,	&0x0057	;#0xff84
    4080:	c2 43 58 00 	mov.b	#0,	&0x0058	;r3 As==00
    4084:	b2 40 00 40 82 01 	mov	#16384,	&0x0182	;#0x4000
    408a:	3c 40 0b 00 	mov	#11,	r12	;#0x000b
    408e:	3f 40 00 04 	mov	#1024,	r15	;#0x0400
    4092:	0e 43       	clr	r14		
    4094:	0d 4f       	mov	r15,	r13	
    4096:	0d de       	bis	r14,	r13	
    4098:	59 42 57 00 	mov.b	&0x0057,r9	
    409c:	0a 4d       	mov	r13,	r10	
    409e:	8a 10       	swpb	r10		
    40a0:	7a f0 07 00 	and.b	#7,	r10	;#0x0007
    40a4:	79 f0 f8 ff 	and.b	#-8,	r9	;#0xfff8
    40a8:	4a d9       	bis.b	r9,	r10	
    40aa:	c2 4a 57 00 	mov.b	r10,	&0x0057	
    40ae:	c2 4d 56 00 	mov.b	r13,	&0x0056	
    40b2:	39 40 03 00 	mov	#3,	r9	;#0x0003
    40b6:	0a 43       	clr	r10		
    40b8:	08 43       	clr	r8		
    40ba:	0f 3c       	jmp	$+32     	;abs 0x40da
    40bc:	18 42 90 01 	mov	&0x0190,r8	
    40c0:	38 52       	add	#8,	r8	;r2 As==11
    40c2:	82 48 92 01 	mov	r8,	&0x0192	
    40c6:	b2 f0 fe ff 82 01 	and	#-2,	&0x0182	;#0xfffe
    40cc:	92 b3 82 01 	bit	#1,	&0x0182	;r3 As==01
    40d0:	fd 27       	jz	$-4      	;abs 0x40cc
    40d2:	17 42 70 01 	mov	&0x0170,r7	
    40d6:	08 4a       	mov	r10,	r8	
    40d8:	0a 47       	mov	r7,	r10	
    40da:	39 53       	add	#-1,	r9	;r3 As==11
    40dc:	ef 23       	jnz	$-32     	;abs 0x40bc
    40de:	0a 88       	sub	r8,	r10	
    40e0:	3a 90 01 04 	cmp	#1025,	r10	;#0x0401
    40e4:	01 2c       	jc	$+4      	;abs 0x40e8
    40e6:	0e 4d       	mov	r13,	r14	
    40e8:	0d 4e       	mov	r14,	r13	
    40ea:	3d f0 e0 00 	and	#224,	r13	;#0x00e0
    40ee:	3d 90 e0 00 	cmp	#224,	r13	;#0x00e0
    40f2:	04 24       	jz	$+10     	;abs 0x40fc
    40f4:	12 c3       	clrc			
    40f6:	0f 10       	rrc	r15		
    40f8:	3c 53       	add	#-1,	r12	;r3 As==11
    40fa:	cc 23       	jnz	$-102    	;abs 0x4094
    40fc:	5d 42 57 00 	mov.b	&0x0057,r13	
    4100:	0f 4e       	mov	r14,	r15	
    4102:	8f 10       	swpb	r15		
    4104:	7f f0 07 00 	and.b	#7,	r15	;#0x0007
    4108:	7d f0 f8 ff 	and.b	#-8,	r13	;#0xfff8
    410c:	4f dd       	bis.b	r13,	r15	
    410e:	c2 4f 57 00 	mov.b	r15,	&0x0057	
    4112:	c2 4e 56 00 	mov.b	r14,	&0x0056	
    4116:	5f 42 57 00 	mov.b	&0x0057,r15	
    411a:	7f f0 07 00 	and.b	#7,	r15	;#0x0007
    411e:	7f d0 80 ff 	bis.b	#-128,	r15	;#0xff80
    4122:	c2 4f 57 00 	mov.b	r15,	&0x0057	
    4126:	e2 42 58 00 	mov.b	#4,	&0x0058	;r2 As==10
    412a:	f2 f0 fd ff 00 00 	and.b	#-3,	&0x0000	;#0xfffd
    4130:	82 43 70 01 	mov	#0,	&0x0170	;r3 As==00
    4134:	b2 40 02 02 60 01 	mov	#514,	&0x0160	;#0x0202
    413a:	82 43 90 01 	mov	#0,	&0x0190	;r3 As==00
    413e:	b2 40 02 01 80 01 	mov	#258,	&0x0180	;#0x0102
    4144:	1f 42 60 01 	mov	&0x0160,r15	
    4148:	3f f0 cf ff 	and	#-49,	r15	;#0xffcf
    414c:	3f d0 20 00 	bis	#32,	r15	;#0x0020
    4150:	82 4f 60 01 	mov	r15,	&0x0160	
    4154:	1f 42 80 01 	mov	&0x0180,r15	
    4158:	3f f0 cf ff 	and	#-49,	r15	;#0xffcf
    415c:	3f d0 20 00 	bis	#32,	r15	;#0x0020
    4160:	82 4f 80 01 	mov	r15,	&0x0180	
    4164:	c2 43 26 00 	mov.b	#0,	&0x0026	;r3 As==00
    4168:	c2 43 2e 00 	mov.b	#0,	&0x002e	;r3 As==00
    416c:	c2 43 1b 00 	mov.b	#0,	&0x001b	;r3 As==00
    4170:	c2 43 1f 00 	mov.b	#0,	&0x001f	;r3 As==00
    4174:	c2 43 33 00 	mov.b	#0,	&0x0033	;r3 As==00
    4178:	c2 43 37 00 	mov.b	#0,	&0x0037	;r3 As==00
    417c:	c2 43 21 00 	mov.b	#0,	&0x0021	;r3 As==00
    4180:	f2 40 e0 ff 22 00 	mov.b	#-32,	&0x0022	;#0xffe0
    4186:	f2 40 30 00 29 00 	mov.b	#48,	&0x0029	;#0x0030
    418c:	f2 40 7b 00 2a 00 	mov.b	#123,	&0x002a	;#0x007b
    4192:	c2 43 19 00 	mov.b	#0,	&0x0019	;r3 As==00
    4196:	f2 40 f1 ff 1a 00 	mov.b	#-15,	&0x001a	;#0xfff1
    419c:	f2 40 dd ff 1d 00 	mov.b	#-35,	&0x001d	;#0xffdd
    41a2:	f2 40 fd ff 1e 00 	mov.b	#-3,	&0x001e	;#0xfffd
    41a8:	f2 43 31 00 	mov.b	#-1,	&0x0031	;r3 As==11
    41ac:	f2 43 32 00 	mov.b	#-1,	&0x0032	;r3 As==11
    41b0:	c2 43 35 00 	mov.b	#0,	&0x0035	;r3 As==00
    41b4:	f2 43 36 00 	mov.b	#-1,	&0x0036	;r3 As==11
    41b8:	c2 43 25 00 	mov.b	#0,	&0x0025	;r3 As==00
    41bc:	c2 43 2d 00 	mov.b	#0,	&0x002d	;r3 As==00
    41c0:	1e 42 70 01 	mov	&0x0170,r14	
    41c4:	1f 42 70 01 	mov	&0x0170,r15	
    41c8:	0f 8e       	sub	r14,	r15	
    41ca:	3f 90 01 28 	cmp	#10241,	r15	;#0x2801
    41ce:	fa 2b       	jnc	$-10     	;abs 0x41c4
    41d0:	e2 d3 1a 00 	bis.b	#2,	&0x001a	;r3 As==10
    41d4:	f2 d2 1a 00 	bis.b	#8,	&0x001a	;r2 As==11
    41d8:	f2 d0 80 ff 1e 00 	bis.b	#-128,	&0x001e	;#0xff80
    41de:	f2 d0 10 00 1e 00 	bis.b	#16,	&0x001e	;#0x0010
    41e4:	f2 d0 80 ff 1d 00 	bis.b	#-128,	&0x001d	;#0xff80
    41ea:	f2 d0 10 00 1d 00 	bis.b	#16,	&0x001d	;#0x0010
    41f0:	03 43       	nop			
    41f2:	03 43       	nop			
    41f4:	f2 f0 ef ff 1d 00 	and.b	#-17,	&0x001d	;#0xffef
    41fa:	f2 f0 f7 ff 19 00 	and.b	#-9,	&0x0019	;#0xfff7
    4200:	5f 43       	mov.b	#1,	r15	;r3 As==01
    4202:	b0 12 d8 46 	call	#0x46d8	
    4206:	4f 43       	clr.b	r15		
    4208:	b0 12 d8 46 	call	#0x46d8	
    420c:	5f 43       	mov.b	#1,	r15	;r3 As==01
    420e:	b0 12 d8 46 	call	#0x46d8	
    4212:	5f 43       	mov.b	#1,	r15	;r3 As==01
    4214:	b0 12 d8 46 	call	#0x46d8	
    4218:	5f 43       	mov.b	#1,	r15	;r3 As==01
    421a:	b0 12 d8 46 	call	#0x46d8	
    421e:	4f 43       	clr.b	r15		
    4220:	b0 12 d8 46 	call	#0x46d8	
    4224:	4f 43       	clr.b	r15		
    4226:	b0 12 d8 46 	call	#0x46d8	
    422a:	5f 43       	mov.b	#1,	r15	;r3 As==01
    422c:	b0 12 d8 46 	call	#0x46d8	
    4230:	f2 d0 10 00 1d 00 	bis.b	#16,	&0x001d	;#0x0010
    4236:	f2 d2 19 00 	bis.b	#8,	&0x0019	;r2 As==11
    423a:	e2 d3 19 00 	bis.b	#2,	&0x0019	;r3 As==10
    423e:	f2 d0 10 00 32 00 	bis.b	#16,	&0x0032	;#0x0010
    4244:	f2 d0 20 00 32 00 	bis.b	#32,	&0x0032	;#0x0020
    424a:	f2 d0 40 00 32 00 	bis.b	#64,	&0x0032	;#0x0040
    4250:	f2 d0 10 00 31 00 	bis.b	#16,	&0x0031	;#0x0010
    4256:	f2 d0 20 00 31 00 	bis.b	#32,	&0x0031	;#0x0020
    425c:	f2 d0 40 00 31 00 	bis.b	#64,	&0x0031	;#0x0040
    4262:	b0 12 ae 72 	call	#0x72ae	
    4266:	4f 93       	tst.b	r15		
    4268:	fc 23       	jnz	$-6      	;abs 0x4262
    426a:	f2 43 f4 17 	mov.b	#-1,	&0x17f4	;r3 As==11
    426e:	c2 43 e6 11 	mov.b	#0,	&0x11e6	;r3 As==00
    4272:	c2 43 e8 11 	mov.b	#0,	&0x11e8	;r3 As==00
    4276:	f2 40 0a 00 84 12 	mov.b	#10,	&0x1284	;#0x000a
    427c:	c2 43 d2 11 	mov.b	#0,	&0x11d2	;r3 As==00
    4280:	c2 43 d9 11 	mov.b	#0,	&0x11d9	;r3 As==00
    4284:	c2 43 ea 17 	mov.b	#0,	&0x17ea	;r3 As==00
    4288:	82 43 12 18 	mov	#0,	&0x1812	;r3 As==00
    428c:	c2 43 fd 17 	mov.b	#0,	&0x17fd	;r3 As==00
    4290:	c2 43 15 12 	mov.b	#0,	&0x1215	;r3 As==00
    4294:	b0 12 80 46 	call	#0x4680	
    4298:	c2 43 07 12 	mov.b	#0,	&0x1207	;r3 As==00
    429c:	c2 43 06 12 	mov.b	#0,	&0x1206	;r3 As==00
    42a0:	f2 43 b2 11 	mov.b	#-1,	&0x11b2	;r3 As==11
    42a4:	b2 43 60 11 	mov	#-1,	&0x1160	;r3 As==11
    42a8:	c2 43 62 11 	mov.b	#0,	&0x1162	;r3 As==00
    42ac:	b2 43 64 11 	mov	#-1,	&0x1164	;r3 As==11
    42b0:	c2 43 66 11 	mov.b	#0,	&0x1166	;r3 As==00
    42b4:	b2 43 68 11 	mov	#-1,	&0x1168	;r3 As==11
    42b8:	c2 43 6a 11 	mov.b	#0,	&0x116a	;r3 As==00
    42bc:	b2 43 6c 11 	mov	#-1,	&0x116c	;r3 As==11
    42c0:	c2 43 6e 11 	mov.b	#0,	&0x116e	;r3 As==00
    42c4:	b0 12 28 46 	call	#0x4628	
    42c8:	c2 4f 16 15 	mov.b	r15,	&0x1516	
    42cc:	1f 42 18 11 	mov	&0x1118,r15	
    42d0:	1f 53       	inc	r15		
    42d2:	82 4f c6 11 	mov	r15,	&0x11c6	
    42d6:	82 43 c8 11 	mov	#0,	&0x11c8	;r3 As==00
    42da:	b2 f0 ef ff 86 01 	and	#-17,	&0x0186	;#0xffef
    42e0:	b2 40 00 40 86 01 	mov	#16384,	&0x0186	;#0x4000
    42e6:	b2 40 b4 17 54 11 	mov	#6068,	&0x1154	;#0x17b4
    42ec:	f2 f0 ef ff 22 00 	and.b	#-17,	&0x0022	;#0xffef
    42f2:	e2 d2 1e 00 	bis.b	#4,	&0x001e	;r2 As==10
    42f6:	f2 f0 fd ff 1e 00 	and.b	#-3,	&0x001e	;#0xfffd
    42fc:	b2 f0 ef ff 82 01 	and	#-17,	&0x0182	;#0xffef
    4302:	b2 40 00 40 82 01 	mov	#16384,	&0x0182	;#0x4000
    4308:	f2 43 d8 11 	mov.b	#-1,	&0x11d8	;r3 As==11
    430c:	c2 43 8c 12 	mov.b	#0,	&0x128c	;r3 As==00
    4310:	c2 43 8d 12 	mov.b	#0,	&0x128d	;r3 As==00
    4314:	c2 43 8e 12 	mov.b	#0,	&0x128e	;r3 As==00
    4318:	c2 43 8f 12 	mov.b	#0,	&0x128f	;r3 As==00
    431c:	e2 d2 1e 00 	bis.b	#4,	&0x001e	;r2 As==10
    4320:	f2 d0 40 00 1e 00 	bis.b	#64,	&0x001e	;#0x0040
    4326:	f2 d0 20 00 1e 00 	bis.b	#32,	&0x001e	;#0x0020
    432c:	0f 42       	mov	r2,	r15	
    432e:	32 c2       	dint			
    4330:	03 43       	nop			
    4332:	1e 42 10 11 	mov	&0x1110,r14	
    4336:	3f f2       	and	#8,	r15	;r2 As==11
    4338:	01 24       	jz	$+4      	;abs 0x433c
    433a:	32 d2       	eint			
    433c:	82 4e de 11 	mov	r14,	&0x11de	
    4340:	b0 12 d2 47 	call	#0x47d2	
    4344:	82 4c 9c 12 	mov	r12,	&0x129c	
    4348:	82 4d 9e 12 	mov	r13,	&0x129e	
    434c:	82 4e a0 12 	mov	r14,	&0x12a0	
    4350:	82 4f a2 12 	mov	r15,	&0x12a2	
    4354:	d2 42 0e 11 bc 11 	mov.b	&0x110e,&0x11bc	
    435a:	c2 43 bd 11 	mov.b	#0,	&0x11bd	;r3 As==00
    435e:	f2 40 1f 00 8a 12 	mov.b	#31,	&0x128a	;#0x001f
    4364:	f2 40 1a 00 14 15 	mov.b	#26,	&0x1514	;#0x001a
    436a:	b0 12 d2 47 	call	#0x47d2	
    436e:	82 4c 9c 12 	mov	r12,	&0x129c	
    4372:	82 4d 9e 12 	mov	r13,	&0x129e	
    4376:	82 4e a0 12 	mov	r14,	&0x12a0	
    437a:	82 4f a2 12 	mov	r15,	&0x12a2	
    437e:	3f 40 9c 12 	mov	#4764,	r15	;#0x129c
    4382:	0e 4f       	mov	r15,	r14	
    4384:	3e 50 07 00 	add	#7,	r14	;#0x0007
    4388:	0d 43       	clr	r13		
    438a:	6c 4f       	mov.b	@r15,	r12	
    438c:	ef 4e 00 00 	mov.b	@r14,	0(r15)	;0x0000(r15)
    4390:	ce 4c 00 00 	mov.b	r12,	0(r14)	;0x0000(r14)
    4394:	1d 53       	inc	r13		
    4396:	1f 53       	inc	r15		
    4398:	3e 53       	add	#-1,	r14	;r3 As==11
    439a:	2d 92       	cmp	#4,	r13	;r2 As==10
    439c:	f6 23       	jnz	$-18     	;abs 0x438a
    439e:	c2 43 94 11 	mov.b	#0,	&0x1194	;r3 As==00
    43a2:	c2 43 fc 17 	mov.b	#0,	&0x17fc	;r3 As==00
    43a6:	c2 43 be 11 	mov.b	#0,	&0x11be	;r3 As==00
    43aa:	c2 43 9a 12 	mov.b	#0,	&0x129a	;r3 As==00
    43ae:	b0 12 ae 72 	call	#0x72ae	
    43b2:	4f 93       	tst.b	r15		
    43b4:	fc 23       	jnz	$-6      	;abs 0x43ae
    43b6:	0b 93       	tst	r11		
    43b8:	01 24       	jz	$+4      	;abs 0x43bc
    43ba:	32 d2       	eint			
    43bc:	32 d2       	eint			
    43be:	3e 40 9a 11 	mov	#4506,	r14	;#0x119a
    43c2:	0f 43       	clr	r15		
    43c4:	02 12       	push	r2		
    43c6:	32 c2       	dint			
    43c8:	03 43       	nop			
    43ca:	82 4f 32 01 	mov	r15,	&0x0132	
    43ce:	b2 40 34 00 38 01 	mov	#52,	&0x0138	;#0x0034
    43d4:	1d 42 3a 01 	mov	&0x013a,r13	
    43d8:	32 41       	pop	r2		
    43da:	3d 50 18 15 	add	#5400,	r13	;#0x1518
    43de:	8e 4d 00 00 	mov	r13,	0(r14)	;0x0000(r14)
    43e2:	1f 53       	inc	r15		
    43e4:	2e 53       	incd	r14		
    43e6:	3f 90 0c 00 	cmp	#12,	r15	;#0x000c
    43ea:	ec 23       	jnz	$-38     	;abs 0x43c4
    43ec:	c2 43 85 12 	mov.b	#0,	&0x1285	;r3 As==00
    43f0:	c2 43 73 11 	mov.b	#0,	&0x1173	;r3 As==00
    43f4:	c2 43 f2 17 	mov.b	#0,	&0x17f2	;r3 As==00
    43f8:	d2 43 cb 11 	mov.b	#1,	&0x11cb	;r3 As==01
    43fc:	3e 40 ee 11 	mov	#4590,	r14	;#0x11ee
    4400:	0f 43       	clr	r15		
    4402:	02 12       	push	r2		
    4404:	32 c2       	dint			
    4406:	03 43       	nop			
    4408:	82 4f 32 01 	mov	r15,	&0x0132	
    440c:	b2 40 34 00 38 01 	mov	#52,	&0x0138	;#0x0034
    4412:	1d 42 3a 01 	mov	&0x013a,r13	
    4416:	32 41       	pop	r2		
    4418:	3d 50 a4 12 	add	#4772,	r13	;#0x12a4
    441c:	8e 4d 00 00 	mov	r13,	0(r14)	;0x0000(r14)
    4420:	1f 53       	inc	r15		
    4422:	2e 53       	incd	r14		
    4424:	3f 90 0c 00 	cmp	#12,	r15	;#0x000c
    4428:	ec 23       	jnz	$-38     	;abs 0x4402
    442a:	c2 43 14 18 	mov.b	#0,	&0x1814	;r3 As==00
    442e:	c2 43 5c 11 	mov.b	#0,	&0x115c	;r3 As==00
    4432:	c2 43 5e 11 	mov.b	#0,	&0x115e	;r3 As==00
    4436:	d2 43 72 11 	mov.b	#1,	&0x1172	;r3 As==01
    443a:	5f 43       	mov.b	#1,	r15	;r3 As==01
    443c:	b0 12 b4 5a 	call	#0x5ab4	
    4440:	0f 93       	tst	r15		
    4442:	1f 20       	jnz	$+64     	;abs 0x4482
    4444:	0f 42       	mov	r2,	r15	
    4446:	3f f2       	and	#8,	r15	;r2 As==11
    4448:	32 c2       	dint			
    444a:	03 43       	nop			
    444c:	82 93 4e 11 	tst	&0x114e	
    4450:	04 24       	jz	$+10     	;abs 0x445a
    4452:	0f 93       	tst	r15		
    4454:	1e 24       	jz	$+62     	;abs 0x4492
    4456:	32 d2       	eint			
    4458:	1c 3c       	jmp	$+58     	;abs 0x4492
    445a:	92 43 4e 11 	mov	#1,	&0x114e	;r3 As==01
    445e:	0f 93       	tst	r15		
    4460:	01 24       	jz	$+4      	;abs 0x4464
    4462:	32 d2       	eint			
    4464:	0f 42       	mov	r2,	r15	
    4466:	32 c2       	dint			
    4468:	03 43       	nop			
    446a:	f2 d0 20 00 1d 00 	bis.b	#32,	&0x001d	;#0x0020
    4470:	3f f2       	and	#8,	r15	;r2 As==11
    4472:	01 24       	jz	$+4      	;abs 0x4476
    4474:	32 d2       	eint			
    4476:	3e 40 14 00 	mov	#20,	r14	;#0x0014
    447a:	0f 43       	clr	r15		
    447c:	b0 12 d4 4c 	call	#0x4cd4	
    4480:	08 3c       	jmp	$+18     	;abs 0x4492
    4482:	6f 43       	mov.b	#2,	r15	;r3 As==10
    4484:	b0 12 48 4b 	call	#0x4b48	
    4488:	4f 93       	tst.b	r15		
    448a:	b9 20       	jnz	$+372    	;abs 0x45fe
    448c:	5f 43       	mov.b	#1,	r15	;r3 As==01
    448e:	b0 12 48 4b 	call	#0x4b48	
    4492:	0f 42       	mov	r2,	r15	
    4494:	3f f2       	and	#8,	r15	;r2 As==11
    4496:	32 c2       	dint			
    4498:	03 43       	nop			
    449a:	f2 90 0a 00 84 12 	cmp.b	#10,	&0x1284	;#0x000a
    44a0:	07 24       	jz	$+16     	;abs 0x44b0
    44a2:	e2 92 ba 11 	cmp.b	#4,	&0x11ba	;r2 As==10
    44a6:	04 24       	jz	$+10     	;abs 0x44b0
    44a8:	0f 93       	tst	r15		
    44aa:	0a 24       	jz	$+22     	;abs 0x44c0
    44ac:	32 d2       	eint			
    44ae:	08 3c       	jmp	$+18     	;abs 0x44c0
    44b0:	0f 93       	tst	r15		
    44b2:	01 24       	jz	$+4      	;abs 0x44b6
    44b4:	32 d2       	eint			
    44b6:	7f 40 0f 00 	mov.b	#15,	r15	;#0x000f
    44ba:	b0 12 9c 49 	call	#0x499c	
    44be:	02 3c       	jmp	$+6      	;abs 0x44c4
    44c0:	c2 43 cb 11 	mov.b	#0,	&0x11cb	;r3 As==00
    44c4:	0b 42       	mov	r2,	r11	
    44c6:	3b f2       	and	#8,	r11	;r2 As==11
    44c8:	32 c2       	dint			
    44ca:	03 43       	nop			
    44cc:	85 3c       	jmp	$+268    	;abs 0x45d8
    44ce:	c2 93 17 11 	tst.b	&0x1117	
    44d2:	77 24       	jz	$+240    	;abs 0x45c2
    44d4:	b2 b0 10 00 62 01 	bit	#16,	&0x0162	;#0x0010
    44da:	08 20       	jnz	$+18     	;abs 0x44ec
    44dc:	b2 b0 10 00 64 01 	bit	#16,	&0x0164	;#0x0010
    44e2:	04 20       	jnz	$+10     	;abs 0x44ec
    44e4:	b2 b0 10 00 66 01 	bit	#16,	&0x0166	;#0x0010
    44ea:	07 24       	jz	$+16     	;abs 0x44fa
    44ec:	1f 42 60 01 	mov	&0x0160,r15	
    44f0:	3f f0 00 03 	and	#768,	r15	;#0x0300
    44f4:	3f 90 00 02 	cmp	#512,	r15	;#0x0200
    44f8:	2e 24       	jz	$+94     	;abs 0x4556
    44fa:	5f 42 04 00 	mov.b	&0x0004,r15	
    44fe:	3f b0 c0 00 	bit	#192,	r15	;#0x00c0
    4502:	05 24       	jz	$+12     	;abs 0x450e
    4504:	5f 42 71 00 	mov.b	&0x0071,r15	
    4508:	3f f0 20 00 	and	#32,	r15	;#0x0020
    450c:	26 20       	jnz	$+78     	;abs 0x455a
    450e:	5f 42 05 00 	mov.b	&0x0005,r15	
    4512:	3f b0 30 00 	bit	#48,	r15	;#0x0030
    4516:	05 24       	jz	$+12     	;abs 0x4522
    4518:	5f 42 79 00 	mov.b	&0x0079,r15	
    451c:	3f f0 20 00 	and	#32,	r15	;#0x0020
    4520:	1e 20       	jnz	$+62     	;abs 0x455e
    4522:	5f 42 70 00 	mov.b	&0x0070,r15	
    4526:	1f f3       	and	#1,	r15	;r3 As==01
    4528:	1c 24       	jz	$+58     	;abs 0x4562
    452a:	5f 42 71 00 	mov.b	&0x0071,r15	
    452e:	3f f0 20 00 	and	#32,	r15	;#0x0020
    4532:	1a 24       	jz	$+54     	;abs 0x4568
    4534:	5f 42 72 00 	mov.b	&0x0072,r15	
    4538:	3f f0 20 00 	and	#32,	r15	;#0x0020
    453c:	18 24       	jz	$+50     	;abs 0x456e
    453e:	5f 42 70 00 	mov.b	&0x0070,r15	
    4542:	2f f2       	and	#4,	r15	;r2 As==10
    4544:	17 24       	jz	$+48     	;abs 0x4574
    4546:	5f 42 70 00 	mov.b	&0x0070,r15	
    454a:	3f f0 20 00 	and	#32,	r15	;#0x0020
    454e:	15 20       	jnz	$+44     	;abs 0x457a
    4550:	7f 40 05 00 	mov.b	#5,	r15	;#0x0005
    4554:	13 3c       	jmp	$+40     	;abs 0x457c
    4556:	6f 43       	mov.b	#2,	r15	;r3 As==10
    4558:	11 3c       	jmp	$+36     	;abs 0x457c
    455a:	6f 43       	mov.b	#2,	r15	;r3 As==10
    455c:	0f 3c       	jmp	$+32     	;abs 0x457c
    455e:	6f 43       	mov.b	#2,	r15	;r3 As==10
    4560:	0d 3c       	jmp	$+28     	;abs 0x457c
    4562:	7f 40 05 00 	mov.b	#5,	r15	;#0x0005
    4566:	0a 3c       	jmp	$+22     	;abs 0x457c
    4568:	7f 40 05 00 	mov.b	#5,	r15	;#0x0005
    456c:	07 3c       	jmp	$+16     	;abs 0x457c
    456e:	7f 40 05 00 	mov.b	#5,	r15	;#0x0005
    4572:	04 3c       	jmp	$+10     	;abs 0x457c
    4574:	7f 40 05 00 	mov.b	#5,	r15	;#0x0005
    4578:	01 3c       	jmp	$+4      	;abs 0x457c
    457a:	6f 43       	mov.b	#2,	r15	;r3 As==10
    457c:	b2 b0 10 00 a0 01 	bit	#16,	&0x01a0	;#0x0010
    4582:	19 24       	jz	$+52     	;abs 0x45b6
    4584:	b2 b0 10 00 a2 01 	bit	#16,	&0x01a2	;#0x0010
    458a:	05 24       	jz	$+12     	;abs 0x4596
    458c:	b2 b2 a2 01 	bit	#8,	&0x01a2	;r2 As==11
    4590:	0f 24       	jz	$+32     	;abs 0x45b0
    4592:	6f 43       	mov.b	#2,	r15	;r3 As==10
    4594:	10 3c       	jmp	$+34     	;abs 0x45b6
    4596:	1e 42 a2 01 	mov	&0x01a2,r14	
    459a:	3e b0 00 04 	bit	#1024,	r14	;#0x0400
    459e:	0b 24       	jz	$+24     	;abs 0x45b6
    45a0:	1e 42 60 01 	mov	&0x0160,r14	
    45a4:	3e f0 00 03 	and	#768,	r14	;#0x0300
    45a8:	3e 90 00 02 	cmp	#512,	r14	;#0x0200
    45ac:	04 20       	jnz	$+10     	;abs 0x45b6
    45ae:	02 3c       	jmp	$+6      	;abs 0x45b4
    45b0:	4f 43       	clr.b	r15		
    45b2:	01 3c       	jmp	$+4      	;abs 0x45b6
    45b4:	6f 43       	mov.b	#2,	r15	;r3 As==10
    45b6:	7f 90 05 00 	cmp.b	#5,	r15	;#0x0005
    45ba:	01 28       	jnc	$+4      	;abs 0x45be
    45bc:	6f 42       	mov.b	#4,	r15	;r2 As==10
    45be:	c2 4f 52 11 	mov.b	r15,	&0x1152	
    45c2:	5f 42 52 11 	mov.b	&0x1152,r15	
    45c6:	0f 5f       	rla	r15		
    45c8:	1f 4f a4 79 	mov	31140(r15),r15	;0x79a4(r15)
    45cc:	3f d2       	bis	#8,	r15	;r2 As==11
    45ce:	81 4f 00 00 	mov	r15,	0(r1)	;0x0000(r1)
    45d2:	22 d1       	bis	@r1,	r2	
    45d4:	32 c2       	dint			
    45d6:	03 43       	nop			
    45d8:	f2 93 e9 17 	cmp.b	#-1,	&0x17e9	;r3 As==11
    45dc:	03 24       	jz	$+8      	;abs 0x45e4
    45de:	b0 12 16 4f 	call	#0x4f16	
    45e2:	01 3c       	jmp	$+4      	;abs 0x45e6
    45e4:	7f 43       	mov.b	#-1,	r15	;r3 As==11
    45e6:	c2 4f c4 11 	mov.b	r15,	&0x11c4	
    45ea:	7f 93       	cmp.b	#-1,	r15	;r3 As==11
    45ec:	70 27       	jz	$-286    	;abs 0x44ce
    45ee:	0b 93       	tst	r11		
    45f0:	01 24       	jz	$+4      	;abs 0x45f4
    45f2:	32 d2       	eint			
    45f4:	5f 42 c4 11 	mov.b	&0x11c4,r15	
    45f8:	b0 12 02 65 	call	#0x6502	
    45fc:	63 3f       	jmp	$-312    	;abs 0x44c4
    45fe:	c2 43 72 11 	mov.b	#0,	&0x1172	;r3 As==00
    4602:	47 3f       	jmp	$-368    	;abs 0x4492

00004604 <__stop_progExec__>:
    4604:	32 d0 f0 00 	bis	#240,	r2	;#0x00f0
    4608:	fd 3f       	jmp	$-4      	;abs 0x4604

0000460a <__ctors_end>:
    460a:	30 40 3a 79 	br	#0x793a	

0000460e <CC2420SpiP__SpiByte__write>:
    460e:	c2 4f 77 00 	mov.b	r15,	&0x0077	
    4612:	5f 42 02 00 	mov.b	&0x0002,r15	
    4616:	3f f0 40 00 	and	#64,	r15	;#0x0040
    461a:	fb 27       	jz	$-8      	;abs 0x4612
    461c:	f2 f0 bf ff 02 00 	and.b	#-65,	&0x0002	;#0xffbf
    4622:	5f 42 76 00 	mov.b	&0x0076,r15	
    4626:	30 41       	ret			

00004628 <RandomMlcgC__Random__rand16>:
    4628:	0b 12       	push	r11		
    462a:	0a 12       	push	r10		
    462c:	09 12       	push	r9		
    462e:	08 12       	push	r8		
    4630:	07 12       	push	r7		
    4632:	06 12       	push	r6		
    4634:	3c 40 4e 83 	mov	#-31922,r12	;#0x834e
    4638:	0d 43       	clr	r13		
    463a:	1e 42 c6 11 	mov	&0x11c6,r14	
    463e:	1f 42 c8 11 	mov	&0x11c8,r15	
    4642:	b0 12 ae 76 	call	#0x76ae	
    4646:	07 4d       	mov	r13,	r7	
    4648:	08 4e       	mov	r14,	r8	
    464a:	09 4f       	mov	r15,	r9	
    464c:	0e 4c       	mov	r12,	r14	
    464e:	0f 47       	mov	r7,	r15	
    4650:	12 c3       	clrc			
    4652:	0f 10       	rrc	r15		
    4654:	0e 10       	rrc	r14		
    4656:	08 5e       	add	r14,	r8	
    4658:	09 6f       	addc	r15,	r9	
    465a:	09 93       	tst	r9		
    465c:	05 34       	jge	$+12     	;abs 0x4668
    465e:	38 f3       	and	#-1,	r8	;r3 As==11
    4660:	39 f0 ff 7f 	and	#32767,	r9	;#0x7fff
    4664:	18 53       	inc	r8		
    4666:	09 63       	adc	r9		
    4668:	82 48 c6 11 	mov	r8,	&0x11c6	
    466c:	82 49 c8 11 	mov	r9,	&0x11c8	
    4670:	0f 48       	mov	r8,	r15	
    4672:	36 41       	pop	r6		
    4674:	37 41       	pop	r7		
    4676:	38 41       	pop	r8		
    4678:	39 41       	pop	r9		
    467a:	3a 41       	pop	r10		
    467c:	3b 41       	pop	r11		
    467e:	30 41       	ret			

00004680 <SerialP__rxInit>:
    4680:	c2 43 89 17 	mov.b	#0,	&0x1789	;r3 As==00
    4684:	c2 43 88 17 	mov.b	#0,	&0x1788	;r3 As==00
    4688:	e2 42 ba 11 	mov.b	#4,	&0x11ba	;r2 As==10
    468c:	c2 43 87 12 	mov.b	#0,	&0x1287	;r3 As==00
    4690:	c2 43 8e 17 	mov.b	#0,	&0x178e	;r3 As==00
    4694:	c2 43 bb 11 	mov.b	#0,	&0x11bb	;r3 As==00
    4698:	82 43 12 12 	mov	#0,	&0x1212	;r3 As==00
    469c:	30 41       	ret			

0000469e <OneWireMasterP__BusyWait__wait>:
    469e:	1e 42 70 01 	mov	&0x0170,r14	
    46a2:	3f 90 01 80 	cmp	#-32767,r15	;#0x8001
    46a6:	0a 28       	jnc	$+22     	;abs 0x46bc
    46a8:	3f 50 00 80 	add	#-32768,r15	;#0x8000
    46ac:	1d 42 70 01 	mov	&0x0170,r13	
    46b0:	0d 8e       	sub	r14,	r13	
    46b2:	0f 9d       	cmp	r13,	r15	
    46b4:	fb 2f       	jc	$-8      	;abs 0x46ac
    46b6:	0e 5f       	add	r15,	r14	
    46b8:	3f 40 00 80 	mov	#-32768,r15	;#0x8000
    46bc:	1d 42 70 01 	mov	&0x0170,r13	
    46c0:	0d 8e       	sub	r14,	r13	
    46c2:	0f 9d       	cmp	r13,	r15	
    46c4:	fb 2f       	jc	$-8      	;abs 0x46bc
    46c6:	30 41       	ret			

000046c8 <OneWireMasterP__Pin__makeInput>:
    46c8:	f2 f0 ef ff 2a 00 	and.b	#-17,	&0x002a	;#0xffef
    46ce:	30 41       	ret			

000046d0 <OneWireMasterP__Pin__makeOutput>:
    46d0:	f2 d0 10 00 2a 00 	bis.b	#16,	&0x002a	;#0x0010
    46d6:	30 41       	ret			

000046d8 <MotePlatformC__TOSH_FLASH_M25P_DP_bit>:
    46d8:	4f 93       	tst.b	r15		
    46da:	04 24       	jz	$+10     	;abs 0x46e4
    46dc:	5f 42 19 00 	mov.b	&0x0019,r15	
    46e0:	6f d3       	bis.b	#2,	r15	;r3 As==10
    46e2:	04 3c       	jmp	$+10     	;abs 0x46ec
    46e4:	5f 42 19 00 	mov.b	&0x0019,r15	
    46e8:	7f f0 fd ff 	and.b	#-3,	r15	;#0xfffd
    46ec:	c2 4f 19 00 	mov.b	r15,	&0x0019	
    46f0:	f2 d2 19 00 	bis.b	#8,	&0x0019	;r2 As==11
    46f4:	f2 f0 f7 ff 19 00 	and.b	#-9,	&0x0019	;#0xfff7
    46fa:	30 41       	ret			

000046fc <HplMsp430Usart1P__Usart__disableSpi>:
    46fc:	f2 f0 ef ff 05 00 	and.b	#-17,	&0x0005	;#0xffef
    4702:	3f 40 33 00 	mov	#51,	r15	;#0x0033
    4706:	ff f0 fd ff 00 00 	and.b	#-3,	0(r15)	;#0xfffd, 0x0000(r15)
    470c:	ff f0 fb ff 00 00 	and.b	#-5,	0(r15)	;#0xfffb, 0x0000(r15)
    4712:	ff f0 f7 ff 00 00 	and.b	#-9,	0(r15)	;#0xfff7, 0x0000(r15)
    4718:	30 41       	ret			

0000471a <HplMsp430Usart1P__Usart__disableUart>:
    471a:	f2 f0 cf ff 05 00 	and.b	#-49,	&0x0005	;#0xffcf
    4720:	3f 40 1b 00 	mov	#27,	r15	;#0x001b
    4724:	ff f0 bf ff 00 00 	and.b	#-65,	0(r15)	;#0xffbf, 0x0000(r15)
    472a:	ff f0 7f 00 00 00 	and.b	#127,	0(r15)	;#0x007f, 0x0000(r15)
    4730:	30 41       	ret			

00004732 <CC2420PacketP__getNetwork>:
    4732:	5c 4f 02 00 	mov.b	2(r15),	r12	;0x0002(r15)
    4736:	8c 10       	swpb	r12		
    4738:	5e 4f 01 00 	mov.b	1(r15),	r14	;0x0001(r15)
    473c:	0c de       	bis	r14,	r12	
    473e:	0e 4c       	mov	r12,	r14	
    4740:	8e 10       	swpb	r14		
    4742:	4e 4e       	mov.b	r14,	r14	
    4744:	12 c3       	clrc			
    4746:	0e 10       	rrc	r14		
    4748:	12 c3       	clrc			
    474a:	0e 10       	rrc	r14		
    474c:	3e f0 03 00 	and	#3,	r14	;#0x0003
    4750:	5d 4e bc 79 	mov.b	31164(r14),r13	;0x79bc(r14)
    4754:	8d 11       	sxt	r13		
    4756:	0e 4c       	mov	r12,	r14	
    4758:	8e 10       	swpb	r14		
    475a:	4e 4e       	mov.b	r14,	r14	
    475c:	7c 40 06 00 	mov.b	#6,	r12	;#0x0006
    4760:	12 c3       	clrc			
    4762:	0e 10       	rrc	r14		
    4764:	7c 53       	add.b	#-1,	r12	;r3 As==11
    4766:	fc 23       	jnz	$-6      	;abs 0x4760
    4768:	5e 4e bc 79 	mov.b	31164(r14),r14	;0x79bc(r14)
    476c:	8e 11       	sxt	r14		
    476e:	0e 5d       	add	r13,	r14	
    4770:	3e 50 06 00 	add	#6,	r14	;#0x0006
    4774:	0f 5e       	add	r14,	r15	
    4776:	30 41       	ret			

00004778 <Msp430TimerP__1__Timer__get>:
    4778:	1f 42 90 01 	mov	&0x0190,r15	
    477c:	01 3c       	jmp	$+4      	;abs 0x4780
    477e:	0f 4e       	mov	r14,	r15	
    4780:	1e 42 90 01 	mov	&0x0190,r14	
    4784:	0f 9e       	cmp	r14,	r15	
    4786:	fb 23       	jnz	$-8      	;abs 0x477e
    4788:	30 41       	ret			

0000478a <CC2420ReceiveP__reset_state>:
    478a:	f2 40 80 ff 74 11 	mov.b	#-128,	&0x1174	;#0xff80
    4790:	c2 43 b6 11 	mov.b	#0,	&0x11b6	;r3 As==00
    4794:	c2 43 ee 17 	mov.b	#0,	&0x17ee	;r3 As==00
    4798:	c2 43 e8 17 	mov.b	#0,	&0x17e8	;r3 As==00
    479c:	c2 43 95 11 	mov.b	#0,	&0x1195	;r3 As==00
    47a0:	30 41       	ret			

000047a2 <GpioCaptureC__0__enableCapture>:
    47a2:	b2 f0 ef ff 84 01 	and	#-17,	&0x0184	;#0xffef
    47a8:	f2 f0 fd ff 1e 00 	and.b	#-3,	&0x001e	;#0xfffd
    47ae:	e2 d3 1f 00 	bis.b	#2,	&0x001f	;r3 As==10
    47b2:	4f 4f       	mov.b	r15,	r15	
    47b4:	8f 10       	swpb	r15		
    47b6:	7e 40 06 00 	mov.b	#6,	r14	;#0x0006
    47ba:	0f 5f       	rla	r15		
    47bc:	7e 53       	add.b	#-1,	r14	;r3 As==11
    47be:	fd 23       	jnz	$-4      	;abs 0x47ba
    47c0:	3f d0 00 01 	bis	#256,	r15	;#0x0100
    47c4:	82 4f 84 01 	mov	r15,	&0x0184	
    47c8:	b2 d0 10 00 84 01 	bis	#16,	&0x0184	;#0x0010
    47ce:	0f 43       	clr	r15		
    47d0:	30 41       	ret			

000047d2 <LocalIeeeEui64P__LocalIeeeEui64__getId>:
    47d2:	0b 12       	push	r11		
    47d4:	0a 12       	push	r10		
    47d6:	09 12       	push	r9		
    47d8:	08 12       	push	r8		
    47da:	c2 93 42 11 	tst.b	&0x1142	
    47de:	af 20       	jnz	$+352    	;abs 0x493e
    47e0:	c2 93 40 11 	tst.b	&0x1140	
    47e4:	81 20       	jnz	$+260    	;abs 0x48e8
    47e6:	b0 12 c8 46 	call	#0x46c8	
    47ea:	f2 f0 ef ff 29 00 	and.b	#-17,	&0x0029	;#0xffef
    47f0:	b0 12 d0 46 	call	#0x46d0	
    47f4:	3f 40 30 02 	mov	#560,	r15	;#0x0230
    47f8:	b0 12 9e 46 	call	#0x469e	
    47fc:	b0 12 c8 46 	call	#0x46c8	
    4800:	3f 40 3c 00 	mov	#60,	r15	;#0x003c
    4804:	b0 12 9e 46 	call	#0x469e	
    4808:	0b 43       	clr	r11		
    480a:	f2 b0 10 00 28 00 	bit.b	#16,	&0x0028	;#0x0010
    4810:	09 24       	jz	$+20     	;abs 0x4824
    4812:	3b 50 05 00 	add	#5,	r11	;#0x0005
    4816:	3f 40 05 00 	mov	#5,	r15	;#0x0005
    481a:	b0 12 9e 46 	call	#0x469e	
    481e:	3b 90 f0 00 	cmp	#240,	r11	;#0x00f0
    4822:	f3 23       	jnz	$-24     	;abs 0x480a
    4824:	3f 40 a4 01 	mov	#420,	r15	;#0x01a4
    4828:	b0 12 9e 46 	call	#0x469e	
    482c:	3b 90 f0 00 	cmp	#240,	r11	;#0x00f0
    4830:	5d 2c       	jc	$+188    	;abs 0x48ec
    4832:	7a 42       	mov.b	#8,	r10	;r2 As==11
    4834:	7b 40 33 00 	mov.b	#51,	r11	;#0x0033
    4838:	1b b3       	bit	#1,	r11	;r3 As==01
    483a:	0b 24       	jz	$+24     	;abs 0x4852
    483c:	b0 12 d0 46 	call	#0x46d0	
    4840:	3f 40 05 00 	mov	#5,	r15	;#0x0005
    4844:	b0 12 9e 46 	call	#0x469e	
    4848:	b0 12 c8 46 	call	#0x46c8	
    484c:	3f 40 41 00 	mov	#65,	r15	;#0x0041
    4850:	0a 3c       	jmp	$+22     	;abs 0x4866
    4852:	b0 12 d0 46 	call	#0x46d0	
    4856:	3f 40 3c 00 	mov	#60,	r15	;#0x003c
    485a:	b0 12 9e 46 	call	#0x469e	
    485e:	b0 12 c8 46 	call	#0x46c8	
    4862:	3f 40 05 00 	mov	#5,	r15	;#0x0005
    4866:	b0 12 9e 46 	call	#0x469e	
    486a:	12 c3       	clrc			
    486c:	4b 10       	rrc.b	r11		
    486e:	7a 53       	add.b	#-1,	r10	;r3 As==11
    4870:	e3 23       	jnz	$-56     	;abs 0x4838
    4872:	3a 40 92 12 	mov	#4754,	r10	;#0x1292
    4876:	79 42       	mov.b	#8,	r9	;r2 As==11
    4878:	4b 43       	clr.b	r11		
    487a:	12 c3       	clrc			
    487c:	4b 10       	rrc.b	r11		
    487e:	b0 12 d0 46 	call	#0x46d0	
    4882:	3f 40 05 00 	mov	#5,	r15	;#0x0005
    4886:	b0 12 9e 46 	call	#0x469e	
    488a:	b0 12 c8 46 	call	#0x46c8	
    488e:	3f 40 05 00 	mov	#5,	r15	;#0x0005
    4892:	b0 12 9e 46 	call	#0x469e	
    4896:	58 42 28 00 	mov.b	&0x0028,r8	
    489a:	3f 40 41 00 	mov	#65,	r15	;#0x0041
    489e:	b0 12 9e 46 	call	#0x469e	
    48a2:	78 b0 10 00 	bit.b	#16,	r8	;#0x0010
    48a6:	02 24       	jz	$+6      	;abs 0x48ac
    48a8:	7b d0 80 ff 	bis.b	#-128,	r11	;#0xff80
    48ac:	79 53       	add.b	#-1,	r9	;r3 As==11
    48ae:	e5 23       	jnz	$-52     	;abs 0x487a
    48b0:	ca 4b 00 00 	mov.b	r11,	0(r10)	;0x0000(r10)
    48b4:	1a 53       	inc	r10		
    48b6:	3a 90 9a 12 	cmp	#4762,	r10	;#0x129a
    48ba:	dd 23       	jnz	$-68     	;abs 0x4876
    48bc:	0e 43       	clr	r14		
    48be:	4f 43       	clr.b	r15		
    48c0:	5f ee 92 12 	xor.b	4754(r14),r15	;0x1292(r14)
    48c4:	7d 42       	mov.b	#8,	r13	;r2 As==11
    48c6:	0c 4f       	mov	r15,	r12	
    48c8:	1c f3       	and	#1,	r12	;r3 As==01
    48ca:	12 c3       	clrc			
    48cc:	4f 10       	rrc.b	r15		
    48ce:	0c 93       	tst	r12		
    48d0:	02 24       	jz	$+6      	;abs 0x48d6
    48d2:	7f e0 8c ff 	xor.b	#-116,	r15	;#0xff8c
    48d6:	7d 53       	add.b	#-1,	r13	;r3 As==11
    48d8:	f6 23       	jnz	$-18     	;abs 0x48c6
    48da:	1e 53       	inc	r14		
    48dc:	3e 92       	cmp	#8,	r14	;r2 As==11
    48de:	f0 23       	jnz	$-30     	;abs 0x48c0
    48e0:	4f 93       	tst.b	r15		
    48e2:	06 20       	jnz	$+14     	;abs 0x48f0
    48e4:	d2 43 40 11 	mov.b	#1,	&0x1140	;r3 As==01
    48e8:	0f 43       	clr	r15		
    48ea:	04 3c       	jmp	$+10     	;abs 0x48f4
    48ec:	2f 42       	mov	#4,	r15	;r2 As==10
    48ee:	02 3c       	jmp	$+6      	;abs 0x48f4
    48f0:	3f 40 06 00 	mov	#6,	r15	;#0x0006
    48f4:	c2 93 40 11 	tst.b	&0x1140	
    48f8:	07 24       	jz	$+16     	;abs 0x4908
    48fa:	5e 42 93 12 	mov.b	&0x1293,r14	
    48fe:	5d 42 94 12 	mov.b	&0x1294,r13	
    4902:	5c 42 95 12 	mov.b	&0x1295,r12	
    4906:	03 3c       	jmp	$+8      	;abs 0x490e
    4908:	4c 43       	clr.b	r12		
    490a:	4d 43       	clr.b	r13		
    490c:	4e 43       	clr.b	r14		
    490e:	0f 93       	tst	r15		
    4910:	16 20       	jnz	$+46     	;abs 0x493e
    4912:	c2 43 44 11 	mov.b	#0,	&0x1144	;r3 As==00
    4916:	f2 40 12 00 45 11 	mov.b	#18,	&0x1145	;#0x0012
    491c:	f2 40 6d 00 46 11 	mov.b	#109,	&0x1146	;#0x006d
    4922:	f2 40 45 00 47 11 	mov.b	#69,	&0x1147	;#0x0045
    4928:	f2 40 50 00 48 11 	mov.b	#80,	&0x1148	;#0x0050
    492e:	c2 4c 49 11 	mov.b	r12,	&0x1149	
    4932:	c2 4d 4a 11 	mov.b	r13,	&0x114a	
    4936:	c2 4e 4b 11 	mov.b	r14,	&0x114b	
    493a:	d2 43 42 11 	mov.b	#1,	&0x1142	;r3 As==01
    493e:	1c 42 44 11 	mov	&0x1144,r12	
    4942:	1d 42 46 11 	mov	&0x1146,r13	
    4946:	1e 42 48 11 	mov	&0x1148,r14	
    494a:	1f 42 4a 11 	mov	&0x114a,r15	
    494e:	38 41       	pop	r8		
    4950:	39 41       	pop	r9		
    4952:	3a 41       	pop	r10		
    4954:	3b 41       	pop	r11		
    4956:	30 41       	ret			

00004958 <crcByte>:
    4958:	0d 4f       	mov	r15,	r13	
    495a:	8d 10       	swpb	r13		
    495c:	4d 4d       	mov.b	r13,	r13	
    495e:	4f 4f       	mov.b	r15,	r15	
    4960:	8f 10       	swpb	r15		
    4962:	0d df       	bis	r15,	r13	
    4964:	4e 4e       	mov.b	r14,	r14	
    4966:	0d ee       	xor	r14,	r13	
    4968:	4f 4d       	mov.b	r13,	r15	
    496a:	12 c3       	clrc			
    496c:	4f 10       	rrc.b	r15		
    496e:	12 c3       	clrc			
    4970:	4f 10       	rrc.b	r15		
    4972:	12 c3       	clrc			
    4974:	4f 10       	rrc.b	r15		
    4976:	12 c3       	clrc			
    4978:	4f 10       	rrc.b	r15		
    497a:	4e 4f       	mov.b	r15,	r14	
    497c:	0e ed       	xor	r13,	r14	
    497e:	4f 4e       	mov.b	r14,	r15	
    4980:	8f 10       	swpb	r15		
    4982:	0f 5f       	rla	r15		
    4984:	0f 5f       	rla	r15		
    4986:	0f 5f       	rla	r15		
    4988:	0f 5f       	rla	r15		
    498a:	0f ee       	xor	r14,	r15	
    498c:	4e 4f       	mov.b	r15,	r14	
    498e:	0e 5e       	rla	r14		
    4990:	0e 5e       	rla	r14		
    4992:	0e 5e       	rla	r14		
    4994:	0e 5e       	rla	r14		
    4996:	0e 5e       	rla	r14		
    4998:	0f ee       	xor	r14,	r15	
    499a:	30 41       	ret			

0000499c <SchedulerBasicP__TaskBasic__postTask>:
    499c:	0e 42       	mov	r2,	r14	
    499e:	3e f2       	and	#8,	r14	;r2 As==11
    49a0:	32 c2       	dint			
    49a2:	03 43       	nop			
    49a4:	4d 4f       	mov.b	r15,	r13	
    49a6:	fd 93 78 11 	cmp.b	#-1,	4472(r13);r3 As==11, 0x1178(r13)
    49aa:	06 20       	jnz	$+14     	;abs 0x49b8
    49ac:	1d 43       	mov	#1,	r13	;r3 As==01
    49ae:	c2 9f 0f 18 	cmp.b	r15,	&0x180f	
    49b2:	03 24       	jz	$+8      	;abs 0x49ba
    49b4:	0d 43       	clr	r13		
    49b6:	01 3c       	jmp	$+4      	;abs 0x49ba
    49b8:	1d 43       	mov	#1,	r13	;r3 As==01
    49ba:	0d 93       	tst	r13		
    49bc:	0f 20       	jnz	$+32     	;abs 0x49dc
    49be:	f2 93 e9 17 	cmp.b	#-1,	&0x17e9	;r3 As==11
    49c2:	03 20       	jnz	$+8      	;abs 0x49ca
    49c4:	c2 4f e9 17 	mov.b	r15,	&0x17e9	
    49c8:	04 3c       	jmp	$+10     	;abs 0x49d2
    49ca:	5d 42 0f 18 	mov.b	&0x180f,r13	
    49ce:	cd 4f 78 11 	mov.b	r15,	4472(r13);0x1178(r13)
    49d2:	c2 4f 0f 18 	mov.b	r15,	&0x180f	
    49d6:	0e 93       	tst	r14		
    49d8:	0c 24       	jz	$+26     	;abs 0x49f2
    49da:	05 3c       	jmp	$+12     	;abs 0x49e6
    49dc:	0e 93       	tst	r14		
    49de:	05 20       	jnz	$+12     	;abs 0x49ea
    49e0:	3f 40 05 00 	mov	#5,	r15	;#0x0005
    49e4:	30 41       	ret			
    49e6:	32 d2       	eint			
    49e8:	04 3c       	jmp	$+10     	;abs 0x49f2
    49ea:	32 d2       	eint			
    49ec:	3f 40 05 00 	mov	#5,	r15	;#0x0005
    49f0:	30 41       	ret			
    49f2:	0f 43       	clr	r15		
    49f4:	30 41       	ret			

000049f6 <VirtualizeTimerImplP__0__fireTimers>:
    49f6:	0b 12       	push	r11		
    49f8:	0a 12       	push	r10		
    49fa:	09 12       	push	r9		
    49fc:	59 42 0a 18 	mov.b	&0x180a,r9	
    4a00:	69 b3       	bit.b	#2,	r9	;r3 As==10
    4a02:	1e 24       	jz	$+62     	;abs 0x4a40
    4a04:	1a 42 fe 17 	mov	&0x17fe,r10	
    4a08:	1b 42 00 18 	mov	&0x1800,r11	
    4a0c:	1c 42 02 18 	mov	&0x1802,r12	
    4a10:	1d 42 04 18 	mov	&0x1804,r13	
    4a14:	0e 8a       	sub	r10,	r14	
    4a16:	0f 7b       	subc	r11,	r15	
    4a18:	0f 9d       	cmp	r13,	r15	
    4a1a:	12 28       	jnc	$+38     	;abs 0x4a40
    4a1c:	02 20       	jnz	$+6      	;abs 0x4a22
    4a1e:	0e 9c       	cmp	r12,	r14	
    4a20:	0f 28       	jnc	$+32     	;abs 0x4a40
    4a22:	59 b3       	bit.b	#1,	r9	;r3 As==01
    4a24:	05 24       	jz	$+12     	;abs 0x4a30
    4a26:	79 f0 fd ff 	and.b	#-3,	r9	;#0xfffd
    4a2a:	c2 49 0a 18 	mov.b	r9,	&0x180a	
    4a2e:	08 3c       	jmp	$+18     	;abs 0x4a40
    4a30:	0e 4c       	mov	r12,	r14	
    4a32:	0f 4d       	mov	r13,	r15	
    4a34:	0e 5a       	add	r10,	r14	
    4a36:	0f 6b       	addc	r11,	r15	
    4a38:	82 4e fe 17 	mov	r14,	&0x17fe	
    4a3c:	82 4f 00 18 	mov	r15,	&0x1800	
    4a40:	7f 40 0c 00 	mov.b	#12,	r15	;#0x000c
    4a44:	b0 12 9c 49 	call	#0x499c	
    4a48:	39 41       	pop	r9		
    4a4a:	3a 41       	pop	r10		
    4a4c:	3b 41       	pop	r11		
    4a4e:	30 41       	ret			

00004a50 <SerialP__MaybeScheduleTx>:
    4a50:	0b 12       	push	r11		
    4a52:	0b 42       	mov	r2,	r11	
    4a54:	3b f2       	and	#8,	r11	;r2 As==11
    4a56:	32 c2       	dint			
    4a58:	03 43       	nop			
    4a5a:	c2 93 fd 17 	tst.b	&0x17fd	
    4a5e:	08 20       	jnz	$+18     	;abs 0x4a70
    4a60:	7f 40 0e 00 	mov.b	#14,	r15	;#0x000e
    4a64:	b0 12 9c 49 	call	#0x499c	
    4a68:	0f 93       	tst	r15		
    4a6a:	02 20       	jnz	$+6      	;abs 0x4a70
    4a6c:	d2 43 fd 17 	mov.b	#1,	&0x17fd	;r3 As==01
    4a70:	0b 93       	tst	r11		
    4a72:	01 24       	jz	$+4      	;abs 0x4a76
    4a74:	32 d2       	eint			
    4a76:	3b 41       	pop	r11		
    4a78:	30 41       	ret			

00004a7a <Msp430SpiNoDmaP__0__continueOp>:
    4a7a:	0b 12       	push	r11		
    4a7c:	0f 42       	mov	r2,	r15	
    4a7e:	3f f2       	and	#8,	r15	;r2 As==11
    4a80:	32 c2       	dint			
    4a82:	03 43       	nop			
    4a84:	1d 42 d0 11 	mov	&0x11d0,r13	
    4a88:	1e 42 ec 17 	mov	&0x17ec,r14	
    4a8c:	0d 93       	tst	r13		
    4a8e:	03 24       	jz	$+8      	;abs 0x4a96
    4a90:	0d 5e       	add	r14,	r13	
    4a92:	6d 4d       	mov.b	@r13,	r13	
    4a94:	01 3c       	jmp	$+4      	;abs 0x4a98
    4a96:	4d 43       	clr.b	r13		
    4a98:	c2 4d 77 00 	mov.b	r13,	&0x0077	
    4a9c:	6e 53       	incd.b	r14		
    4a9e:	1d 42 f0 17 	mov	&0x17f0,r13	
    4aa2:	4c 4e       	mov.b	r14,	r12	
    4aa4:	0d 9c       	cmp	r12,	r13	
    4aa6:	1c 2c       	jc	$+58     	;abs 0x4ae0
    4aa8:	4e 4d       	mov.b	r13,	r14	
    4aaa:	1a 3c       	jmp	$+54     	;abs 0x4ae0
    4aac:	5d 42 02 00 	mov.b	&0x0002,r13	
    4ab0:	3d f0 40 00 	and	#64,	r13	;#0x0040
    4ab4:	fb 27       	jz	$-8      	;abs 0x4aac
    4ab6:	5b 42 76 00 	mov.b	&0x0076,r11	
    4aba:	1d 42 82 12 	mov	&0x1282,r13	
    4abe:	0d 93       	tst	r13		
    4ac0:	03 24       	jz	$+8      	;abs 0x4ac8
    4ac2:	0c 5d       	add	r13,	r12	
    4ac4:	cc 4b 00 00 	mov.b	r11,	0(r12)	;0x0000(r12)
    4ac8:	1d 42 d0 11 	mov	&0x11d0,r13	
    4acc:	0d 93       	tst	r13		
    4ace:	04 24       	jz	$+10     	;abs 0x4ad8
    4ad0:	1d 52 ec 17 	add	&0x17ec,r13	
    4ad4:	6d 4d       	mov.b	@r13,	r13	
    4ad6:	01 3c       	jmp	$+4      	;abs 0x4ada
    4ad8:	4d 43       	clr.b	r13		
    4ada:	c2 4d 77 00 	mov.b	r13,	&0x0077	
    4ade:	01 3c       	jmp	$+4      	;abs 0x4ae2
    4ae0:	4e 4e       	mov.b	r14,	r14	
    4ae2:	1c 42 ec 17 	mov	&0x17ec,r12	
    4ae6:	0d 4c       	mov	r12,	r13	
    4ae8:	1d 53       	inc	r13		
    4aea:	82 4d ec 17 	mov	r13,	&0x17ec	
    4aee:	0d 9e       	cmp	r14,	r13	
    4af0:	dd 2b       	jnc	$-68     	;abs 0x4aac
    4af2:	0f 93       	tst	r15		
    4af4:	01 24       	jz	$+4      	;abs 0x4af8
    4af6:	32 d2       	eint			
    4af8:	3b 41       	pop	r11		
    4afa:	30 41       	ret			

00004afc <CC2420SpiP__WorkingState__isIdle>:
    4afc:	0e 42       	mov	r2,	r14	
    4afe:	32 c2       	dint			
    4b00:	03 43       	nop			
    4b02:	5f 43       	mov.b	#1,	r15	;r3 As==01
    4b04:	c2 93 8c 12 	tst.b	&0x128c	
    4b08:	01 24       	jz	$+4      	;abs 0x4b0c
    4b0a:	4f 43       	clr.b	r15		
    4b0c:	3e f2       	and	#8,	r14	;r2 As==11
    4b0e:	01 24       	jz	$+4      	;abs 0x4b12
    4b10:	32 d2       	eint			
    4b12:	30 41       	ret			

00004b14 <CC2420SpiP__Strobe__strobe>:
    4b14:	0b 12       	push	r11		
    4b16:	0a 12       	push	r10		
    4b18:	4a 4f       	mov.b	r15,	r10	
    4b1a:	0b 42       	mov	r2,	r11	
    4b1c:	3b f2       	and	#8,	r11	;r2 As==11
    4b1e:	32 c2       	dint			
    4b20:	03 43       	nop			
    4b22:	b0 12 fc 4a 	call	#0x4afc	
    4b26:	4f 93       	tst.b	r15		
    4b28:	04 24       	jz	$+10     	;abs 0x4b32
    4b2a:	0b 93       	tst	r11		
    4b2c:	09 24       	jz	$+20     	;abs 0x4b40
    4b2e:	32 d2       	eint			
    4b30:	07 3c       	jmp	$+16     	;abs 0x4b40
    4b32:	0b 93       	tst	r11		
    4b34:	01 24       	jz	$+4      	;abs 0x4b38
    4b36:	32 d2       	eint			
    4b38:	4f 4a       	mov.b	r10,	r15	
    4b3a:	b0 12 0e 46 	call	#0x460e	
    4b3e:	01 3c       	jmp	$+4      	;abs 0x4b42
    4b40:	4f 43       	clr.b	r15		
    4b42:	3a 41       	pop	r10		
    4b44:	3b 41       	pop	r11		
    4b46:	30 41       	ret			

00004b48 <CC2420CsmaP__SplitControlState__isState>:
    4b48:	4e 4f       	mov.b	r15,	r14	
    4b4a:	0d 42       	mov	r2,	r13	
    4b4c:	32 c2       	dint			
    4b4e:	03 43       	nop			
    4b50:	5f 43       	mov.b	#1,	r15	;r3 As==01
    4b52:	5e 92 8d 12 	cmp.b	&0x128d,r14	
    4b56:	01 24       	jz	$+4      	;abs 0x4b5a
    4b58:	4f 43       	clr.b	r15		
    4b5a:	3d b2       	bit	#8,	r13	;r2 As==11
    4b5c:	01 24       	jz	$+4      	;abs 0x4b60
    4b5e:	32 d2       	eint			
    4b60:	30 41       	ret			

00004b62 <Msp430GpioC__4__GeneralIO__clr>:
    4b62:	0f 42       	mov	r2,	r15	
    4b64:	32 c2       	dint			
    4b66:	03 43       	nop			
    4b68:	f2 f0 fb ff 1d 00 	and.b	#-5,	&0x001d	;#0xfffb
    4b6e:	3f f2       	and	#8,	r15	;r2 As==11
    4b70:	01 24       	jz	$+4      	;abs 0x4b74
    4b72:	32 d2       	eint			
    4b74:	30 41       	ret			

00004b76 <CC2420SpiP__WorkingState__toIdle>:
    4b76:	0f 42       	mov	r2,	r15	
    4b78:	32 c2       	dint			
    4b7a:	03 43       	nop			
    4b7c:	c2 43 8c 12 	mov.b	#0,	&0x128c	;r3 As==00
    4b80:	3f f2       	and	#8,	r15	;r2 As==11
    4b82:	01 24       	jz	$+4      	;abs 0x4b86
    4b84:	32 d2       	eint			
    4b86:	30 41       	ret			

00004b88 <UniqueSendP__State__toIdle>:
    4b88:	0f 42       	mov	r2,	r15	
    4b8a:	32 c2       	dint			
    4b8c:	03 43       	nop			
    4b8e:	c2 43 8e 12 	mov.b	#0,	&0x128e	;r3 As==00
    4b92:	3f f2       	and	#8,	r15	;r2 As==11
    4b94:	01 24       	jz	$+4      	;abs 0x4b98
    4b96:	32 d2       	eint			
    4b98:	30 41       	ret			

00004b9a <Msp430GpioC__4__GeneralIO__set>:
    4b9a:	0f 42       	mov	r2,	r15	
    4b9c:	32 c2       	dint			
    4b9e:	03 43       	nop			
    4ba0:	e2 d2 1d 00 	bis.b	#4,	&0x001d	;r2 As==10
    4ba4:	3f f2       	and	#8,	r15	;r2 As==11
    4ba6:	01 24       	jz	$+4      	;abs 0x4baa
    4ba8:	32 d2       	eint			
    4baa:	30 41       	ret			

00004bac <TransformAlarmC__0__Counter__get>:
    4bac:	0b 12       	push	r11		
    4bae:	0a 12       	push	r10		
    4bb0:	09 12       	push	r9		
    4bb2:	0a 42       	mov	r2,	r10	
    4bb4:	3a f2       	and	#8,	r10	;r2 As==11
    4bb6:	32 c2       	dint			
    4bb8:	03 43       	nop			
    4bba:	19 42 10 12 	mov	&0x1210,r9	
    4bbe:	b0 12 78 47 	call	#0x4778	
    4bc2:	0b 4f       	mov	r15,	r11	
    4bc4:	1f 42 80 01 	mov	&0x0180,r15	
    4bc8:	5f f3       	and.b	#1,	r15	;r3 As==01
    4bca:	04 24       	jz	$+10     	;abs 0x4bd4
    4bcc:	19 53       	inc	r9		
    4bce:	b0 12 78 47 	call	#0x4778	
    4bd2:	0b 4f       	mov	r15,	r11	
    4bd4:	0c 43       	clr	r12		
    4bd6:	0d 43       	clr	r13		
    4bd8:	0d 49       	mov	r9,	r13	
    4bda:	0e 4b       	mov	r11,	r14	
    4bdc:	0f 43       	clr	r15		
    4bde:	0e dc       	bis	r12,	r14	
    4be0:	0f dd       	bis	r13,	r15	
    4be2:	0a 93       	tst	r10		
    4be4:	01 24       	jz	$+4      	;abs 0x4be8
    4be6:	32 d2       	eint			
    4be8:	39 41       	pop	r9		
    4bea:	3a 41       	pop	r10		
    4bec:	3b 41       	pop	r11		
    4bee:	30 41       	ret			

00004bf0 <TransformAlarmC__0__set_alarm>:
    4bf0:	0b 12       	push	r11		
    4bf2:	0a 12       	push	r10		
    4bf4:	09 12       	push	r9		
    4bf6:	08 12       	push	r8		
    4bf8:	b0 12 ac 4b 	call	#0x4bac	
    4bfc:	08 4e       	mov	r14,	r8	
    4bfe:	09 4f       	mov	r15,	r9	
    4c00:	1e 42 da 11 	mov	&0x11da,r14	
    4c04:	1f 42 dc 11 	mov	&0x11dc,r15	
    4c08:	0a 4e       	mov	r14,	r10	
    4c0a:	0b 4f       	mov	r15,	r11	
    4c0c:	1a 52 d4 11 	add	&0x11d4,r10	
    4c10:	1b 62 d6 11 	addc	&0x11d6,r11	
    4c14:	09 9f       	cmp	r15,	r9	
    4c16:	09 28       	jnc	$+20     	;abs 0x4c2a
    4c18:	02 20       	jnz	$+6      	;abs 0x4c1e
    4c1a:	08 9e       	cmp	r14,	r8	
    4c1c:	06 28       	jnc	$+14     	;abs 0x4c2a
    4c1e:	0b 9f       	cmp	r15,	r11	
    4c20:	10 28       	jnc	$+34     	;abs 0x4c42
    4c22:	09 20       	jnz	$+20     	;abs 0x4c36
    4c24:	0a 9e       	cmp	r14,	r10	
    4c26:	0d 28       	jnc	$+28     	;abs 0x4c42
    4c28:	06 3c       	jmp	$+14     	;abs 0x4c36
    4c2a:	0b 9f       	cmp	r15,	r11	
    4c2c:	04 28       	jnc	$+10     	;abs 0x4c36
    4c2e:	0f 9b       	cmp	r11,	r15	
    4c30:	27 28       	jnc	$+80     	;abs 0x4c80
    4c32:	0a 9e       	cmp	r14,	r10	
    4c34:	25 2c       	jc	$+76     	;abs 0x4c80
    4c36:	09 9b       	cmp	r11,	r9	
    4c38:	04 28       	jnc	$+10     	;abs 0x4c42
    4c3a:	0b 99       	cmp	r9,	r11	
    4c3c:	21 28       	jnc	$+68     	;abs 0x4c80
    4c3e:	08 9a       	cmp	r10,	r8	
    4c40:	1f 2c       	jc	$+64     	;abs 0x4c80
    4c42:	0c 4a       	mov	r10,	r12	
    4c44:	0d 4b       	mov	r11,	r13	
    4c46:	0c 88       	sub	r8,	r12	
    4c48:	0d 79       	subc	r9,	r13	
    4c4a:	0d 93       	tst	r13		
    4c4c:	03 20       	jnz	$+8      	;abs 0x4c54
    4c4e:	3c 90 01 80 	cmp	#-32767,r12	;#0x8001
    4c52:	18 28       	jnc	$+50     	;abs 0x4c84
    4c54:	0e 48       	mov	r8,	r14	
    4c56:	0f 49       	mov	r9,	r15	
    4c58:	3e 50 00 80 	add	#-32768,r14	;#0x8000
    4c5c:	0f 63       	adc	r15		
    4c5e:	82 4e da 11 	mov	r14,	&0x11da	
    4c62:	82 4f dc 11 	mov	r15,	&0x11dc	
    4c66:	0e 4c       	mov	r12,	r14	
    4c68:	0f 4d       	mov	r13,	r15	
    4c6a:	3e 50 00 80 	add	#-32768,r14	;#0x8000
    4c6e:	3f 63       	addc	#-1,	r15	;r3 As==11
    4c70:	82 4e d4 11 	mov	r14,	&0x11d4	
    4c74:	82 4f d6 11 	mov	r15,	&0x11d6	
    4c78:	3c 40 00 80 	mov	#-32768,r12	;#0x8000
    4c7c:	0d 43       	clr	r13		
    4c7e:	0a 3c       	jmp	$+22     	;abs 0x4c94
    4c80:	0c 43       	clr	r12		
    4c82:	0d 43       	clr	r13		
    4c84:	82 4a da 11 	mov	r10,	&0x11da	
    4c88:	82 4b dc 11 	mov	r11,	&0x11dc	
    4c8c:	82 43 d4 11 	mov	#0,	&0x11d4	;r3 As==00
    4c90:	82 43 d6 11 	mov	#0,	&0x11d6	;r3 As==00
    4c94:	0a 4c       	mov	r12,	r10	
    4c96:	b0 12 78 47 	call	#0x4778	
    4c9a:	0e 4f       	mov	r15,	r14	
    4c9c:	0e 88       	sub	r8,	r14	
    4c9e:	0e 9a       	cmp	r10,	r14	
    4ca0:	05 2c       	jc	$+12     	;abs 0x4cac
    4ca2:	0c 4a       	mov	r10,	r12	
    4ca4:	0c 8e       	sub	r14,	r12	
    4ca6:	3c 90 03 00 	cmp	#3,	r12	;#0x0003
    4caa:	06 2c       	jc	$+14     	;abs 0x4cb8
    4cac:	b0 12 78 47 	call	#0x4778	
    4cb0:	2f 53       	incd	r15		
    4cb2:	82 4f 92 01 	mov	r15,	&0x0192	
    4cb6:	03 3c       	jmp	$+8      	;abs 0x4cbe
    4cb8:	0c 5f       	add	r15,	r12	
    4cba:	82 4c 92 01 	mov	r12,	&0x0192	
    4cbe:	b2 f0 fe ff 82 01 	and	#-2,	&0x0182	;#0xfffe
    4cc4:	b2 d0 10 00 82 01 	bis	#16,	&0x0182	;#0x0010
    4cca:	38 41       	pop	r8		
    4ccc:	39 41       	pop	r9		
    4cce:	3a 41       	pop	r10		
    4cd0:	3b 41       	pop	r11		
    4cd2:	30 41       	ret			

00004cd4 <TransformAlarmC__0__Alarm__start>:
    4cd4:	0b 12       	push	r11		
    4cd6:	0a 12       	push	r10		
    4cd8:	09 12       	push	r9		
    4cda:	0a 4e       	mov	r14,	r10	
    4cdc:	0b 4f       	mov	r15,	r11	
    4cde:	b0 12 ac 4b 	call	#0x4bac	
    4ce2:	09 42       	mov	r2,	r9	
    4ce4:	32 c2       	dint			
    4ce6:	03 43       	nop			
    4ce8:	82 4e da 11 	mov	r14,	&0x11da	
    4cec:	82 4f dc 11 	mov	r15,	&0x11dc	
    4cf0:	82 4a d4 11 	mov	r10,	&0x11d4	
    4cf4:	82 4b d6 11 	mov	r11,	&0x11d6	
    4cf8:	b0 12 f0 4b 	call	#0x4bf0	
    4cfc:	39 b2       	bit	#8,	r9	;r2 As==11
    4cfe:	01 24       	jz	$+4      	;abs 0x4d02
    4d00:	32 d2       	eint			
    4d02:	39 41       	pop	r9		
    4d04:	3a 41       	pop	r10		
    4d06:	3b 41       	pop	r11		
    4d08:	30 41       	ret			

00004d0a <CC2420TransmitP__congestionBackoff>:
    4d0a:	0b 12       	push	r11		
    4d0c:	0b 42       	mov	r2,	r11	
    4d0e:	32 c2       	dint			
    4d10:	03 43       	nop			
    4d12:	b0 12 28 46 	call	#0x4628	
    4d16:	3e 40 46 00 	mov	#70,	r14	;#0x0046
    4d1a:	b0 12 74 77 	call	#0x7774	
    4d1e:	0e 4f       	mov	r15,	r14	
    4d20:	3e 50 0b 00 	add	#11,	r14	;#0x000b
    4d24:	82 4e 0c 18 	mov	r14,	&0x180c	
    4d28:	0f 43       	clr	r15		
    4d2a:	b0 12 d4 4c 	call	#0x4cd4	
    4d2e:	3b b2       	bit	#8,	r11	;r2 As==11
    4d30:	01 24       	jz	$+4      	;abs 0x4d34
    4d32:	32 d2       	eint			
    4d34:	3b 41       	pop	r11		
    4d36:	30 41       	ret			

00004d38 <CC2420ControlP__RSTN__clr>:
    4d38:	0f 42       	mov	r2,	r15	
    4d3a:	32 c2       	dint			
    4d3c:	03 43       	nop			
    4d3e:	f2 f0 bf ff 1d 00 	and.b	#-65,	&0x001d	;#0xffbf
    4d44:	3f f2       	and	#8,	r15	;r2 As==11
    4d46:	01 24       	jz	$+4      	;abs 0x4d4a
    4d48:	32 d2       	eint			
    4d4a:	30 41       	ret			

00004d4c <CC2420ControlP__RSTN__set>:
    4d4c:	0f 42       	mov	r2,	r15	
    4d4e:	32 c2       	dint			
    4d50:	03 43       	nop			
    4d52:	f2 d0 40 00 1d 00 	bis.b	#64,	&0x001d	;#0x0040
    4d58:	3f f2       	and	#8,	r15	;r2 As==11
    4d5a:	01 24       	jz	$+4      	;abs 0x4d5e
    4d5c:	32 d2       	eint			
    4d5e:	30 41       	ret			

00004d60 <TransformAlarmC__1__Counter__get>:
    4d60:	0b 12       	push	r11		
    4d62:	0a 12       	push	r10		
    4d64:	09 12       	push	r9		
    4d66:	09 42       	mov	r2,	r9	
    4d68:	39 f2       	and	#8,	r9	;r2 As==11
    4d6a:	32 c2       	dint			
    4d6c:	03 43       	nop			
    4d6e:	1a 42 cc 11 	mov	&0x11cc,r10	
    4d72:	1b 42 ce 11 	mov	&0x11ce,r11	
    4d76:	b0 12 78 47 	call	#0x4778	
    4d7a:	1e 42 80 01 	mov	&0x0180,r14	
    4d7e:	5e f3       	and.b	#1,	r14	;r3 As==01
    4d80:	04 24       	jz	$+10     	;abs 0x4d8a
    4d82:	1a 53       	inc	r10		
    4d84:	0b 63       	adc	r11		
    4d86:	b0 12 78 47 	call	#0x4778	
    4d8a:	12 c3       	clrc			
    4d8c:	0f 10       	rrc	r15		
    4d8e:	12 c3       	clrc			
    4d90:	0f 10       	rrc	r15		
    4d92:	12 c3       	clrc			
    4d94:	0f 10       	rrc	r15		
    4d96:	12 c3       	clrc			
    4d98:	0f 10       	rrc	r15		
    4d9a:	12 c3       	clrc			
    4d9c:	0f 10       	rrc	r15		
    4d9e:	0c 4f       	mov	r15,	r12	
    4da0:	0d 43       	clr	r13		
    4da2:	0e 4a       	mov	r10,	r14	
    4da4:	0f 4b       	mov	r11,	r15	
    4da6:	4f ea       	xor.b	r10,	r15	
    4da8:	0f ea       	xor	r10,	r15	
    4daa:	8f 10       	swpb	r15		
    4dac:	4e 4e       	mov.b	r14,	r14	
    4dae:	8e 10       	swpb	r14		
    4db0:	0e 5e       	rla	r14		
    4db2:	0f 6f       	rlc	r15		
    4db4:	0e 5e       	rla	r14		
    4db6:	0f 6f       	rlc	r15		
    4db8:	0e 5e       	rla	r14		
    4dba:	0f 6f       	rlc	r15		
    4dbc:	0e dc       	bis	r12,	r14	
    4dbe:	0f dd       	bis	r13,	r15	
    4dc0:	09 93       	tst	r9		
    4dc2:	01 24       	jz	$+4      	;abs 0x4dc6
    4dc4:	32 d2       	eint			
    4dc6:	39 41       	pop	r9		
    4dc8:	3a 41       	pop	r10		
    4dca:	3b 41       	pop	r11		
    4dcc:	30 41       	ret			

00004dce <TransformAlarmC__1__set_alarm>:
    4dce:	0b 12       	push	r11		
    4dd0:	0a 12       	push	r10		
    4dd2:	09 12       	push	r9		
    4dd4:	08 12       	push	r8		
    4dd6:	b0 12 60 4d 	call	#0x4d60	
    4dda:	08 4e       	mov	r14,	r8	
    4ddc:	09 4f       	mov	r15,	r9	
    4dde:	1e 42 58 11 	mov	&0x1158,r14	
    4de2:	1f 42 5a 11 	mov	&0x115a,r15	
    4de6:	0a 4e       	mov	r14,	r10	
    4de8:	0b 4f       	mov	r15,	r11	
    4dea:	1a 52 96 11 	add	&0x1196,r10	
    4dee:	1b 62 98 11 	addc	&0x1198,r11	
    4df2:	09 9f       	cmp	r15,	r9	
    4df4:	09 28       	jnc	$+20     	;abs 0x4e08
    4df6:	02 20       	jnz	$+6      	;abs 0x4dfc
    4df8:	08 9e       	cmp	r14,	r8	
    4dfa:	06 28       	jnc	$+14     	;abs 0x4e08
    4dfc:	0b 9f       	cmp	r15,	r11	
    4dfe:	10 28       	jnc	$+34     	;abs 0x4e20
    4e00:	09 20       	jnz	$+20     	;abs 0x4e14
    4e02:	0a 9e       	cmp	r14,	r10	
    4e04:	0d 28       	jnc	$+28     	;abs 0x4e20
    4e06:	06 3c       	jmp	$+14     	;abs 0x4e14
    4e08:	0b 9f       	cmp	r15,	r11	
    4e0a:	04 28       	jnc	$+10     	;abs 0x4e14
    4e0c:	0f 9b       	cmp	r11,	r15	
    4e0e:	27 28       	jnc	$+80     	;abs 0x4e5e
    4e10:	0a 9e       	cmp	r14,	r10	
    4e12:	25 2c       	jc	$+76     	;abs 0x4e5e
    4e14:	09 9b       	cmp	r11,	r9	
    4e16:	04 28       	jnc	$+10     	;abs 0x4e20
    4e18:	0b 99       	cmp	r9,	r11	
    4e1a:	21 28       	jnc	$+68     	;abs 0x4e5e
    4e1c:	08 9a       	cmp	r10,	r8	
    4e1e:	1f 2c       	jc	$+64     	;abs 0x4e5e
    4e20:	0c 4a       	mov	r10,	r12	
    4e22:	0d 4b       	mov	r11,	r13	
    4e24:	0c 88       	sub	r8,	r12	
    4e26:	0d 79       	subc	r9,	r13	
    4e28:	0d 93       	tst	r13		
    4e2a:	03 20       	jnz	$+8      	;abs 0x4e32
    4e2c:	3c 90 01 04 	cmp	#1025,	r12	;#0x0401
    4e30:	18 28       	jnc	$+50     	;abs 0x4e62
    4e32:	0e 48       	mov	r8,	r14	
    4e34:	0f 49       	mov	r9,	r15	
    4e36:	3e 50 00 04 	add	#1024,	r14	;#0x0400
    4e3a:	0f 63       	adc	r15		
    4e3c:	82 4e 58 11 	mov	r14,	&0x1158	
    4e40:	82 4f 5a 11 	mov	r15,	&0x115a	
    4e44:	0e 4c       	mov	r12,	r14	
    4e46:	0f 4d       	mov	r13,	r15	
    4e48:	3e 50 00 fc 	add	#-1024,	r14	;#0xfc00
    4e4c:	3f 63       	addc	#-1,	r15	;r3 As==11
    4e4e:	82 4e 96 11 	mov	r14,	&0x1196	
    4e52:	82 4f 98 11 	mov	r15,	&0x1198	
    4e56:	3c 40 00 04 	mov	#1024,	r12	;#0x0400
    4e5a:	0d 43       	clr	r13		
    4e5c:	0a 3c       	jmp	$+22     	;abs 0x4e72
    4e5e:	0c 43       	clr	r12		
    4e60:	0d 43       	clr	r13		
    4e62:	82 4a 58 11 	mov	r10,	&0x1158	
    4e66:	82 4b 5a 11 	mov	r11,	&0x115a	
    4e6a:	82 43 96 11 	mov	#0,	&0x1196	;r3 As==00
    4e6e:	82 43 98 11 	mov	#0,	&0x1198	;r3 As==00
    4e72:	0a 4c       	mov	r12,	r10	
    4e74:	0a 5a       	rla	r10		
    4e76:	0a 5a       	rla	r10		
    4e78:	0a 5a       	rla	r10		
    4e7a:	0a 5a       	rla	r10		
    4e7c:	0a 5a       	rla	r10		
    4e7e:	b0 12 78 47 	call	#0x4778	
    4e82:	08 58       	rla	r8		
    4e84:	08 58       	rla	r8		
    4e86:	08 58       	rla	r8		
    4e88:	08 58       	rla	r8		
    4e8a:	08 58       	rla	r8		
    4e8c:	0e 4f       	mov	r15,	r14	
    4e8e:	0e 88       	sub	r8,	r14	
    4e90:	0e 9a       	cmp	r10,	r14	
    4e92:	04 2c       	jc	$+10     	;abs 0x4e9c
    4e94:	0a 8e       	sub	r14,	r10	
    4e96:	3a 90 03 00 	cmp	#3,	r10	;#0x0003
    4e9a:	06 2c       	jc	$+14     	;abs 0x4ea8
    4e9c:	b0 12 78 47 	call	#0x4778	
    4ea0:	2f 53       	incd	r15		
    4ea2:	82 4f 96 01 	mov	r15,	&0x0196	
    4ea6:	03 3c       	jmp	$+8      	;abs 0x4eae
    4ea8:	0a 5f       	add	r15,	r10	
    4eaa:	82 4a 96 01 	mov	r10,	&0x0196	
    4eae:	b2 f0 fe ff 86 01 	and	#-2,	&0x0186	;#0xfffe
    4eb4:	b2 d0 10 00 86 01 	bis	#16,	&0x0186	;#0x0010
    4eba:	38 41       	pop	r8		
    4ebc:	39 41       	pop	r9		
    4ebe:	3a 41       	pop	r10		
    4ec0:	3b 41       	pop	r11		
    4ec2:	30 41       	ret			

00004ec4 <BaseStationP__Leds__led2Toggle>:
    4ec4:	0f 42       	mov	r2,	r15	
    4ec6:	32 c2       	dint			
    4ec8:	03 43       	nop			
    4eca:	f2 e0 40 00 31 00 	xor.b	#64,	&0x0031	;#0x0040
    4ed0:	3f f2       	and	#8,	r15	;r2 As==11
    4ed2:	01 24       	jz	$+4      	;abs 0x4ed6
    4ed4:	32 d2       	eint			
    4ed6:	30 41       	ret			

00004ed8 <CC2420CsmaP__SplitControlState__forceState>:
    4ed8:	0e 42       	mov	r2,	r14	
    4eda:	32 c2       	dint			
    4edc:	03 43       	nop			
    4ede:	c2 4f 8d 12 	mov.b	r15,	&0x128d	
    4ee2:	3e f2       	and	#8,	r14	;r2 As==11
    4ee4:	01 24       	jz	$+4      	;abs 0x4ee8
    4ee6:	32 d2       	eint			
    4ee8:	30 41       	ret			

00004eea <SerialP__ack_queue_is_empty>:
    4eea:	0e 42       	mov	r2,	r14	
    4eec:	32 c2       	dint			
    4eee:	03 43       	nop			
    4ef0:	5f 43       	mov.b	#1,	r15	;r3 As==01
    4ef2:	d2 92 07 12 06 12 	cmp.b	&0x1207,&0x1206	
    4ef8:	01 24       	jz	$+4      	;abs 0x4efc
    4efa:	4f 43       	clr.b	r15		
    4efc:	3e f2       	and	#8,	r14	;r2 As==11
    4efe:	01 24       	jz	$+4      	;abs 0x4f02
    4f00:	32 d2       	eint			
    4f02:	30 41       	ret			

00004f04 <HplMsp430Usart0P__Usart__resetUsart>:
    4f04:	4f 93       	tst.b	r15		
    4f06:	03 24       	jz	$+8      	;abs 0x4f0e
    4f08:	d2 43 70 00 	mov.b	#1,	&0x0070	;r3 As==01
    4f0c:	30 41       	ret			
    4f0e:	f2 f0 fe ff 70 00 	and.b	#-2,	&0x0070	;#0xfffe
    4f14:	30 41       	ret			

00004f16 <SchedulerBasicP__popTask.part.82>:
    4f16:	5f 42 e9 17 	mov.b	&0x17e9,r15	
    4f1a:	4e 4f       	mov.b	r15,	r14	
    4f1c:	3e 50 78 11 	add	#4472,	r14	;#0x1178
    4f20:	6d 4e       	mov.b	@r14,	r13	
    4f22:	c2 4d e9 17 	mov.b	r13,	&0x17e9	
    4f26:	7d 93       	cmp.b	#-1,	r13	;r3 As==11
    4f28:	02 20       	jnz	$+6      	;abs 0x4f2e
    4f2a:	f2 43 0f 18 	mov.b	#-1,	&0x180f	;r3 As==11
    4f2e:	fe 43 00 00 	mov.b	#-1,	0(r14)	;r3 As==11, 0x0000(r14)
    4f32:	30 41       	ret			

00004f34 <ArbiterP__0__Queue__dequeue.part.116>:
    4f34:	5f 42 15 11 	mov.b	&0x1115,r15	
    4f38:	4e 4f       	mov.b	r15,	r14	
    4f3a:	5d 4e d8 11 	mov.b	4568(r14),r13	;0x11d8(r14)
    4f3e:	c2 4d 15 11 	mov.b	r13,	&0x1115	
    4f42:	7d 93       	cmp.b	#-1,	r13	;r3 As==11
    4f44:	02 20       	jnz	$+6      	;abs 0x4f4a
    4f46:	f2 43 14 11 	mov.b	#-1,	&0x1114	;r3 As==11
    4f4a:	fe 43 d8 11 	mov.b	#-1,	4568(r14);r3 As==11, 0x11d8(r14)
    4f4e:	30 41       	ret			

00004f50 <ArbiterP__0__ResourceConfigure__unconfigure.part.118>:
    4f50:	5f 43       	mov.b	#1,	r15	;r3 As==01
    4f52:	b0 12 04 4f 	call	#0x4f04	
    4f56:	f2 f0 bf ff 04 00 	and.b	#-65,	&0x0004	;#0xffbf
    4f5c:	3f 40 1b 00 	mov	#27,	r15	;#0x001b
    4f60:	ff f0 fd ff 00 00 	and.b	#-3,	0(r15)	;#0xfffd, 0x0000(r15)
    4f66:	ff f0 fb ff 00 00 	and.b	#-5,	0(r15)	;#0xfffb, 0x0000(r15)
    4f6c:	ff f0 f7 ff 00 00 	and.b	#-9,	0(r15)	;#0xfff7, 0x0000(r15)
    4f72:	30 41       	ret			

00004f74 <Msp430TimerP__0__Event__fired>:
    4f74:	5f 93       	cmp.b	#1,	r15	;r3 As==01
    4f76:	0c 24       	jz	$+26     	;abs 0x4f90
    4f78:	03 28       	jnc	$+8      	;abs 0x4f80
    4f7a:	6f 93       	cmp.b	#2,	r15	;r3 As==10
    4f7c:	18 20       	jnz	$+50     	;abs 0x4fae
    4f7e:	10 3c       	jmp	$+34     	;abs 0x4fa0
    4f80:	1f 42 62 01 	mov	&0x0162,r15	
    4f84:	8f 10       	swpb	r15		
    4f86:	5f f3       	and.b	#1,	r15	;r3 As==01
    4f88:	12 24       	jz	$+38     	;abs 0x4fae
    4f8a:	1f 42 72 01 	mov	&0x0172,r15	
    4f8e:	30 41       	ret			
    4f90:	1f 42 64 01 	mov	&0x0164,r15	
    4f94:	8f 10       	swpb	r15		
    4f96:	5f f3       	and.b	#1,	r15	;r3 As==01
    4f98:	0a 24       	jz	$+22     	;abs 0x4fae
    4f9a:	1f 42 74 01 	mov	&0x0174,r15	
    4f9e:	30 41       	ret			
    4fa0:	1f 42 66 01 	mov	&0x0166,r15	
    4fa4:	8f 10       	swpb	r15		
    4fa6:	5f f3       	and.b	#1,	r15	;r3 As==01
    4fa8:	02 24       	jz	$+6      	;abs 0x4fae
    4faa:	1f 42 76 01 	mov	&0x0176,r15	
    4fae:	30 41       	ret			

00004fb0 <Msp430UartP__0__UsartResource__isOwner.part.125>:
    4fb0:	0e 42       	mov	r2,	r14	
    4fb2:	3e f2       	and	#8,	r14	;r2 As==11
    4fb4:	32 c2       	dint			
    4fb6:	03 43       	nop			
    4fb8:	c2 93 01 11 	tst.b	&0x1101	
    4fbc:	04 20       	jnz	$+10     	;abs 0x4fc6
    4fbe:	1f 43       	mov	#1,	r15	;r3 As==01
    4fc0:	a2 92 0e 12 	cmp	#4,	&0x120e	;r2 As==10
    4fc4:	01 24       	jz	$+4      	;abs 0x4fc8
    4fc6:	0f 43       	clr	r15		
    4fc8:	4f 4f       	mov.b	r15,	r15	
    4fca:	0e 93       	tst	r14		
    4fcc:	01 24       	jz	$+4      	;abs 0x4fd0
    4fce:	32 d2       	eint			
    4fd0:	30 41       	ret			

00004fd2 <SerialP__ReceiveBytePacket__endPacket>:
    4fd2:	c2 93 22 11 	tst.b	&0x1122	
    4fd6:	2b 20       	jnz	$+88     	;abs 0x502e
    4fd8:	0f 93       	tst	r15		
    4fda:	29 20       	jnz	$+84     	;abs 0x502e
    4fdc:	d2 43 22 11 	mov.b	#1,	&0x1122	;r3 As==01
    4fe0:	d2 42 0a 11 20 11 	mov.b	&0x110a,&0x1120	
    4fe6:	d2 b3 34 11 	bit.b	#1,	&0x1134	;r3 As==01
    4fea:	0f 6f       	rlc	r15		
    4fec:	c2 4f 75 11 	mov.b	r15,	&0x1175	
    4ff0:	92 42 04 11 1e 11 	mov	&0x1104,&0x111e	
    4ff6:	d2 42 32 11 1c 11 	mov.b	&0x1132,&0x111c	
    4ffc:	5e 42 34 11 	mov.b	&0x1134,r14	
    5000:	5e f3       	and.b	#1,	r14	;r3 As==01
    5002:	5f 43       	mov.b	#1,	r15	;r3 As==01
    5004:	01 24       	jz	$+4      	;abs 0x5008
    5006:	4f 43       	clr.b	r15		
    5008:	5e 42 34 11 	mov.b	&0x1134,r14	
    500c:	7e f0 fe ff 	and.b	#-2,	r14	;#0xfffe
    5010:	4e df       	bis.b	r15,	r14	
    5012:	1f f3       	and	#1,	r15	;r3 As==01
    5014:	0f 5f       	rla	r15		
    5016:	92 4f 06 11 04 11 	mov	4358(r15),&0x1104	;0x1106(r15)
    501c:	7e f0 e7 ff 	and.b	#-25,	r14	;#0xffe7
    5020:	c2 4e 34 11 	mov.b	r14,	&0x1134	
    5024:	7f 40 13 00 	mov.b	#19,	r15	;#0x0013
    5028:	b0 12 9c 49 	call	#0x499c	
    502c:	30 41       	ret			
    502e:	d2 b3 34 11 	bit.b	#1,	&0x1134	;r3 As==01
    5032:	0f 43       	clr	r15		
    5034:	0f 6f       	rlc	r15		
    5036:	5e 42 34 11 	mov.b	&0x1134,r14	
    503a:	4f 93       	tst.b	r15		
    503c:	03 24       	jz	$+8      	;abs 0x5044
    503e:	7e f0 fb ff 	and.b	#-5,	r14	;#0xfffb
    5042:	02 3c       	jmp	$+6      	;abs 0x5048
    5044:	7e f0 fd ff 	and.b	#-3,	r14	;#0xfffd
    5048:	c2 4e 34 11 	mov.b	r14,	&0x1134	
    504c:	30 41       	ret			

0000504e <SerialP__testOff>:
    504e:	f2 90 0a 00 84 12 	cmp.b	#10,	&0x1284	;#0x000a
    5054:	03 20       	jnz	$+8      	;abs 0x505c
    5056:	e2 92 ba 11 	cmp.b	#4,	&0x11ba	;r2 As==10
    505a:	03 24       	jz	$+8      	;abs 0x5062
    505c:	d2 43 36 11 	mov.b	#1,	&0x1136	;r3 As==01
    5060:	30 41       	ret			
    5062:	7f 40 10 00 	mov.b	#16,	r15	;#0x0010
    5066:	b0 12 9c 49 	call	#0x499c	
    506a:	c2 43 36 11 	mov.b	#0,	&0x1136	;r3 As==00
    506e:	30 41       	ret			

00005070 <SerialP__rx_state_machine>:
    5070:	0b 12       	push	r11		
    5072:	0a 12       	push	r10		
    5074:	4b 4f       	mov.b	r15,	r11	
    5076:	4a 4e       	mov.b	r14,	r10	
    5078:	5f 42 ba 11 	mov.b	&0x11ba,r15	
    507c:	5f 93       	cmp.b	#1,	r15	;r3 As==01
    507e:	0f 24       	jz	$+32     	;abs 0x509e
    5080:	06 28       	jnc	$+14     	;abs 0x508e
    5082:	6f 93       	cmp.b	#2,	r15	;r3 As==10
    5084:	40 24       	jz	$+130    	;abs 0x5106
    5086:	7f 90 03 00 	cmp.b	#3,	r15	;#0x0003
    508a:	ef 20       	jnz	$+480    	;abs 0x526a
    508c:	4a 3c       	jmp	$+150    	;abs 0x5122
    508e:	4b 93       	tst.b	r11		
    5090:	02 20       	jnz	$+6      	;abs 0x5096
    5092:	30 40 aa 52 	br	#0x52aa	
    5096:	b0 12 80 46 	call	#0x4680	
    509a:	30 40 8e 52 	br	#0x528e	
    509e:	4b 93       	tst.b	r11		
    50a0:	02 24       	jz	$+6      	;abs 0x50a6
    50a2:	30 40 aa 52 	br	#0x52aa	
    50a6:	c2 4e 8e 17 	mov.b	r14,	&0x178e	
    50aa:	4f 4e       	mov.b	r14,	r15	
    50ac:	7f 50 bc ff 	add.b	#-68,	r15	;#0xffbc
    50b0:	6f 93       	cmp.b	#2,	r15	;r3 As==10
    50b2:	db 2c       	jc	$+440    	;abs 0x526a
    50b4:	ef 3c       	jmp	$+480    	;abs 0x5294
    50b6:	e2 43 ba 11 	mov.b	#2,	&0x11ba	;r3 As==10
    50ba:	03 3c       	jmp	$+8      	;abs 0x50c2
    50bc:	f2 40 03 00 ba 11 	mov.b	#3,	&0x11ba	;#0x0003
    50c2:	5d 42 34 11 	mov.b	&0x1134,r13	
    50c6:	5d f3       	and.b	#1,	r13	;r3 As==01
    50c8:	03 24       	jz	$+8      	;abs 0x50d0
    50ca:	e2 b2 34 11 	bit.b	#4,	&0x1134	;r2 As==10
    50ce:	02 3c       	jmp	$+6      	;abs 0x50d4
    50d0:	e2 b3 34 11 	bit.b	#2,	&0x1134	;r3 As==10
    50d4:	0e 43       	clr	r14		
    50d6:	0e 6e       	rlc	r14		
    50d8:	4e 93       	tst.b	r14		
    50da:	c7 20       	jnz	$+400    	;abs 0x526a
    50dc:	5f 42 34 11 	mov.b	&0x1134,r15	
    50e0:	4d 93       	tst.b	r13		
    50e2:	02 24       	jz	$+6      	;abs 0x50e8
    50e4:	6f d2       	bis.b	#4,	r15	;r2 As==10
    50e6:	01 3c       	jmp	$+4      	;abs 0x50ea
    50e8:	6f d3       	bis.b	#2,	r15	;r3 As==10
    50ea:	c2 4f 34 11 	mov.b	r15,	&0x1134	
    50ee:	5f 42 34 11 	mov.b	&0x1134,r15	
    50f2:	7f f0 e7 ff 	and.b	#-25,	r15	;#0xffe7
    50f6:	7f d2       	bis.b	#8,	r15	;r2 As==11
    50f8:	c2 4f 34 11 	mov.b	r15,	&0x1134	
    50fc:	c2 43 32 11 	mov.b	#0,	&0x1132	;r3 As==00
    5100:	f2 43 0a 11 	mov.b	#-1,	&0x110a	;r3 As==11
    5104:	d2 3c       	jmp	$+422    	;abs 0x52aa
    5106:	4b 93       	tst.b	r11		
    5108:	b0 20       	jnz	$+354    	;abs 0x526a
    510a:	c2 4e bb 11 	mov.b	r14,	&0x11bb	
    510e:	1f 42 12 12 	mov	&0x1212,r15	
    5112:	b0 12 58 49 	call	#0x4958	
    5116:	82 4f 12 12 	mov	r15,	&0x1212	
    511a:	f2 40 03 00 ba 11 	mov.b	#3,	&0x11ba	;#0x0003
    5120:	c4 3c       	jmp	$+394    	;abs 0x52aa
    5122:	5f 42 87 12 	mov.b	&0x1287,r15	
    5126:	7f 93       	cmp.b	#-1,	r15	;r3 As==11
    5128:	a0 24       	jz	$+322    	;abs 0x526a
    512a:	4b 93       	tst.b	r11		
    512c:	45 24       	jz	$+140    	;abs 0x51b8
    512e:	6f 93       	cmp.b	#2,	r15	;r3 As==10
    5130:	9c 28       	jnc	$+314    	;abs 0x526a
    5132:	5f 42 88 17 	mov.b	&0x1788,r15	
    5136:	4f 93       	tst.b	r15		
    5138:	02 24       	jz	$+6      	;abs 0x513e
    513a:	7f 53       	add.b	#-1,	r15	;r3 As==11
    513c:	01 3c       	jmp	$+4      	;abs 0x5140
    513e:	6f 43       	mov.b	#2,	r15	;r3 As==10
    5140:	4e 4f       	mov.b	r15,	r14	
    5142:	5e 4e 8a 17 	mov.b	6026(r14),r14	;0x178a(r14)
    5146:	8e 10       	swpb	r14		
    5148:	4f 93       	tst.b	r15		
    514a:	02 24       	jz	$+6      	;abs 0x5150
    514c:	7f 53       	add.b	#-1,	r15	;r3 As==11
    514e:	01 3c       	jmp	$+4      	;abs 0x5152
    5150:	6f 43       	mov.b	#2,	r15	;r3 As==10
    5152:	4f 4f       	mov.b	r15,	r15	
    5154:	5f 4f 8a 17 	mov.b	6026(r15),r15	;0x178a(r15)
    5158:	0f de       	bis	r14,	r15	
    515a:	1f 92 12 12 	cmp	&0x1212,r15	
    515e:	85 20       	jnz	$+268    	;abs 0x526a
    5160:	0f 43       	clr	r15		
    5162:	b0 12 d2 4f 	call	#0x4fd2	
    5166:	f2 90 44 00 8e 17 	cmp.b	#68,	&0x178e	;#0x0044
    516c:	1c 20       	jnz	$+58     	;abs 0x51a6
    516e:	5c 42 bb 11 	mov.b	&0x11bb,r12	
    5172:	5e 42 06 12 	mov.b	&0x1206,r14	
    5176:	5b 42 07 12 	mov.b	&0x1207,r11	
    517a:	4f 4e       	mov.b	r14,	r15	
    517c:	5f 53       	inc.b	r15		
    517e:	7f 90 06 00 	cmp.b	#6,	r15	;#0x0006
    5182:	02 2c       	jc	$+6      	;abs 0x5188
    5184:	4d 4f       	mov.b	r15,	r13	
    5186:	01 3c       	jmp	$+4      	;abs 0x518a
    5188:	4d 43       	clr.b	r13		
    518a:	4d 9b       	cmp.b	r11,	r13	
    518c:	0c 24       	jz	$+26     	;abs 0x51a6
    518e:	4e 4e       	mov.b	r14,	r14	
    5190:	ce 4c 08 12 	mov.b	r12,	4616(r14);0x1208(r14)
    5194:	c2 4f 06 12 	mov.b	r15,	&0x1206	
    5198:	7f 90 06 00 	cmp.b	#6,	r15	;#0x0006
    519c:	02 28       	jnc	$+6      	;abs 0x51a2
    519e:	c2 43 06 12 	mov.b	#0,	&0x1206	;r3 As==00
    51a2:	b0 12 50 4a 	call	#0x4a50	
    51a6:	b0 12 80 46 	call	#0x4680	
    51aa:	f2 f0 fd ff 1a 11 	and.b	#-3,	&0x111a	;#0xfffd
    51b0:	c2 93 36 11 	tst.b	&0x1136	
    51b4:	7a 24       	jz	$+246    	;abs 0x52aa
    51b6:	64 3c       	jmp	$+202    	;abs 0x5280
    51b8:	6f 93       	cmp.b	#2,	r15	;r3 As==10
    51ba:	46 28       	jnc	$+142    	;abs 0x5248
    51bc:	5f 42 89 17 	mov.b	&0x1789,r15	
    51c0:	5e 4f 8a 17 	mov.b	6026(r15),r14	;0x178a(r15)
    51c4:	5f 42 34 11 	mov.b	&0x1134,r15	
    51c8:	12 c3       	clrc			
    51ca:	4f 10       	rrc.b	r15		
    51cc:	12 c3       	clrc			
    51ce:	4f 10       	rrc.b	r15		
    51d0:	12 c3       	clrc			
    51d2:	4f 10       	rrc.b	r15		
    51d4:	3f f0 03 00 	and	#3,	r15	;#0x0003
    51d8:	1f 93       	cmp	#1,	r15	;r3 As==01
    51da:	03 24       	jz	$+8      	;abs 0x51e2
    51dc:	2f 93       	cmp	#2,	r15	;r3 As==10
    51de:	20 20       	jnz	$+66     	;abs 0x5220
    51e0:	13 3c       	jmp	$+40     	;abs 0x5208
    51e2:	5f 42 34 11 	mov.b	&0x1134,r15	
    51e6:	7f f0 e7 ff 	and.b	#-25,	r15	;#0xffe7
    51ea:	7f d0 10 00 	bis.b	#16,	r15	;#0x0010
    51ee:	c2 4f 34 11 	mov.b	r15,	&0x1134	
    51f2:	4e 93       	tst.b	r14		
    51f4:	02 24       	jz	$+6      	;abs 0x51fa
    51f6:	4f 43       	clr.b	r15		
    51f8:	02 3c       	jmp	$+6      	;abs 0x51fe
    51fa:	7f 40 05 00 	mov.b	#5,	r15	;#0x0005
    51fe:	c2 4f 32 11 	mov.b	r15,	&0x1132	
    5202:	c2 4e 0a 11 	mov.b	r14,	&0x110a	
    5206:	0c 3c       	jmp	$+26     	;abs 0x5220
    5208:	5f 42 32 11 	mov.b	&0x1132,r15	
    520c:	7f 90 34 00 	cmp.b	#52,	r15	;#0x0034
    5210:	07 2c       	jc	$+16     	;abs 0x5220
    5212:	4f 4f       	mov.b	r15,	r15	
    5214:	1f 52 04 11 	add	&0x1104,r15	
    5218:	cf 4e 00 00 	mov.b	r14,	0(r15)	;0x0000(r15)
    521c:	d2 53 32 11 	inc.b	&0x1132	
    5220:	5d 42 89 17 	mov.b	&0x1789,r13	
    5224:	4f 4d       	mov.b	r13,	r15	
    5226:	5e 4f 8a 17 	mov.b	6026(r15),r14	;0x178a(r15)
    522a:	4f 4d       	mov.b	r13,	r15	
    522c:	5f 53       	inc.b	r15		
    522e:	c2 4f 89 17 	mov.b	r15,	&0x1789	
    5232:	7f 90 03 00 	cmp.b	#3,	r15	;#0x0003
    5236:	02 28       	jnc	$+6      	;abs 0x523c
    5238:	c2 43 89 17 	mov.b	#0,	&0x1789	;r3 As==00
    523c:	1f 42 12 12 	mov	&0x1212,r15	
    5240:	b0 12 58 49 	call	#0x4958	
    5244:	82 4f 12 12 	mov	r15,	&0x1212	
    5248:	5e 42 88 17 	mov.b	&0x1788,r14	
    524c:	4f 4e       	mov.b	r14,	r15	
    524e:	cf 4a 8a 17 	mov.b	r10,	6026(r15);0x178a(r15)
    5252:	4f 4e       	mov.b	r14,	r15	
    5254:	5f 53       	inc.b	r15		
    5256:	c2 4f 88 17 	mov.b	r15,	&0x1788	
    525a:	7f 90 03 00 	cmp.b	#3,	r15	;#0x0003
    525e:	02 28       	jnc	$+6      	;abs 0x5264
    5260:	c2 43 88 17 	mov.b	#0,	&0x1788	;r3 As==00
    5264:	d2 53 87 12 	inc.b	&0x1287	
    5268:	20 3c       	jmp	$+66     	;abs 0x52aa
    526a:	b0 12 80 46 	call	#0x4680	
    526e:	f2 f0 fd ff 1a 11 	and.b	#-3,	&0x111a	;#0xfffd
    5274:	1f 43       	mov	#1,	r15	;r3 As==01
    5276:	b0 12 d2 4f 	call	#0x4fd2	
    527a:	c2 93 36 11 	tst.b	&0x1136	
    527e:	05 24       	jz	$+12     	;abs 0x528a
    5280:	e2 42 ba 11 	mov.b	#4,	&0x11ba	;r2 As==10
    5284:	b0 12 4e 50 	call	#0x504e	
    5288:	10 3c       	jmp	$+34     	;abs 0x52aa
    528a:	4b 93       	tst.b	r11		
    528c:	0e 24       	jz	$+30     	;abs 0x52aa
    528e:	d2 43 ba 11 	mov.b	#1,	&0x11ba	;r3 As==01
    5292:	0b 3c       	jmp	$+24     	;abs 0x52aa
    5294:	1f 42 12 12 	mov	&0x1212,r15	
    5298:	b0 12 58 49 	call	#0x4958	
    529c:	82 4f 12 12 	mov	r15,	&0x1212	
    52a0:	7a 90 44 00 	cmp.b	#68,	r10	;#0x0044
    52a4:	0b 23       	jnz	$-488    	;abs 0x50bc
    52a6:	30 40 b6 50 	br	#0x50b6	
    52aa:	3a 41       	pop	r10		
    52ac:	3b 41       	pop	r11		
    52ae:	30 41       	ret			

000052b0 <ArbiterP__0__ResourceDefaultOwner__release>:
    52b0:	d2 93 13 11 	cmp.b	#1,	&0x1113	;r3 As==01
    52b4:	19 20       	jnz	$+52     	;abs 0x52e8
    52b6:	1f 42 b8 11 	mov	&0x11b8,r15	
    52ba:	0e 4f       	mov	r15,	r14	
    52bc:	3e 53       	add	#-1,	r14	;r3 As==11
    52be:	2e 93       	cmp	#2,	r14	;r3 As==10
    52c0:	07 2c       	jc	$+16     	;abs 0x52d0
    52c2:	a2 43 b8 11 	mov	#2,	&0x11b8	;r3 As==10
    52c6:	7f 40 09 00 	mov.b	#9,	r15	;#0x0009
    52ca:	b0 12 9c 49 	call	#0x499c	
    52ce:	0a 3c       	jmp	$+22     	;abs 0x52e4
    52d0:	3f 90 03 00 	cmp	#3,	r15	;#0x0003
    52d4:	0b 20       	jnz	$+24     	;abs 0x52ec
    52d6:	d2 42 12 11 13 11 	mov.b	&0x1112,&0x1113	
    52dc:	f2 43 12 11 	mov.b	#-1,	&0x1112	;r3 As==11
    52e0:	a2 42 b8 11 	mov	#4,	&0x11b8	;r2 As==10
    52e4:	0f 43       	clr	r15		
    52e6:	30 41       	ret			
    52e8:	1f 43       	mov	#1,	r15	;r3 As==01
    52ea:	30 41       	ret			
    52ec:	1f 43       	mov	#1,	r15	;r3 As==01
    52ee:	30 41       	ret			

000052f0 <CC2420SpiP__attemptRelease>:
    52f0:	c2 93 4c 11 	tst.b	&0x114c	
    52f4:	2e 20       	jnz	$+94     	;abs 0x5352
    52f6:	f2 93 16 11 	cmp.b	#-1,	&0x1116	;r3 As==11
    52fa:	2b 20       	jnz	$+88     	;abs 0x5352
    52fc:	b0 12 fc 4a 	call	#0x4afc	
    5300:	4f 93       	tst.b	r15		
    5302:	27 24       	jz	$+80     	;abs 0x5352
    5304:	d2 43 15 15 	mov.b	#1,	&0x1515	;r3 As==01
    5308:	c2 93 76 11 	tst.b	&0x1176	
    530c:	02 24       	jz	$+6      	;abs 0x5312
    530e:	c2 43 15 15 	mov.b	#0,	&0x1515	;r3 As==00
    5312:	c2 93 15 15 	tst.b	&0x1515	
    5316:	1f 24       	jz	$+64     	;abs 0x5356
    5318:	a2 92 b8 11 	cmp	#4,	&0x11b8	;r2 As==10
    531c:	1f 20       	jnz	$+64     	;abs 0x535c
    531e:	c2 93 13 11 	tst.b	&0x1113	
    5322:	1e 20       	jnz	$+62     	;abs 0x5360
    5324:	f2 93 15 11 	cmp.b	#-1,	&0x1115	;r3 As==11
    5328:	05 20       	jnz	$+12     	;abs 0x5334
    532a:	d2 43 13 11 	mov.b	#1,	&0x1113	;r3 As==01
    532e:	82 43 b8 11 	mov	#0,	&0x11b8	;r3 As==00
    5332:	0c 3c       	jmp	$+26     	;abs 0x534c
    5334:	b0 12 34 4f 	call	#0x4f34	
    5338:	c2 4f 12 11 	mov.b	r15,	&0x1112	
    533c:	f2 43 13 11 	mov.b	#-1,	&0x1113	;r3 As==11
    5340:	a2 43 b8 11 	mov	#2,	&0x11b8	;r3 As==10
    5344:	7f 40 09 00 	mov.b	#9,	r15	;#0x0009
    5348:	b0 12 9c 49 	call	#0x499c	
    534c:	b0 12 50 4f 	call	#0x4f50	
    5350:	05 3c       	jmp	$+12     	;abs 0x535c
    5352:	1f 43       	mov	#1,	r15	;r3 As==01
    5354:	30 41       	ret			
    5356:	3f 40 05 00 	mov	#5,	r15	;#0x0005
    535a:	30 41       	ret			
    535c:	0f 43       	clr	r15		
    535e:	30 41       	ret			
    5360:	0f 43       	clr	r15		
    5362:	30 41       	ret			

00005364 <CC2420SpiP__Resource__release>:
    5364:	0b 12       	push	r11		
    5366:	0a 12       	push	r10		
    5368:	09 12       	push	r9		
    536a:	0b 42       	mov	r2,	r11	
    536c:	3b f2       	and	#8,	r11	;r2 As==11
    536e:	32 c2       	dint			
    5370:	03 43       	nop			
    5372:	c2 9f 16 11 	cmp.b	r15,	&0x1116	
    5376:	04 24       	jz	$+10     	;abs 0x5380
    5378:	0b 93       	tst	r11		
    537a:	49 24       	jz	$+148    	;abs 0x540e
    537c:	32 d2       	eint			
    537e:	47 3c       	jmp	$+144    	;abs 0x540e
    5380:	f2 43 16 11 	mov.b	#-1,	&0x1116	;r3 As==11
    5384:	5c 42 4c 11 	mov.b	&0x114c,r12	
    5388:	4c 93       	tst.b	r12		
    538a:	05 20       	jnz	$+12     	;abs 0x5396
    538c:	b0 12 76 4b 	call	#0x4b76	
    5390:	b0 12 f0 52 	call	#0x52f0	
    5394:	35 3c       	jmp	$+108    	;abs 0x5400
    5396:	4d 43       	clr.b	r13		
    5398:	49 4c       	mov.b	r12,	r9	
    539a:	02 12       	push	r2		
    539c:	32 c2       	dint			
    539e:	03 43       	nop			
    53a0:	c2 4d 30 01 	mov.b	r13,	&0x0130	
    53a4:	f2 40 cd ff 38 01 	mov.b	#-51,	&0x0138	;#0xffcd
    53aa:	1f 42 3a 01 	mov	&0x013a,r15	
    53ae:	32 41       	pop	r2		
    53b0:	8f 10       	swpb	r15		
    53b2:	12 c3       	clrc			
    53b4:	4f 10       	rrc.b	r15		
    53b6:	12 c3       	clrc			
    53b8:	4f 10       	rrc.b	r15		
    53ba:	4e 4f       	mov.b	r15,	r14	
    53bc:	4e 5e       	rla.b	r14		
    53be:	4e 5e       	rla.b	r14		
    53c0:	4f 5e       	add.b	r14,	r15	
    53c2:	4d 8f       	sub.b	r15,	r13	
    53c4:	4f 4d       	mov.b	r13,	r15	
    53c6:	4a 4d       	mov.b	r13,	r10	
    53c8:	0e 49       	mov	r9,	r14	
    53ca:	7d f0 0f 00 	and.b	#15,	r13	;#0x000f
    53ce:	4d 93       	tst.b	r13		
    53d0:	03 24       	jz	$+8      	;abs 0x53d8
    53d2:	0e 11       	rra	r14		
    53d4:	7d 53       	add.b	#-1,	r13	;r3 As==11
    53d6:	fb 3f       	jmp	$-8      	;abs 0x53ce
    53d8:	1e f3       	and	#1,	r14	;r3 As==01
    53da:	16 24       	jz	$+46     	;abs 0x5408
    53dc:	c2 4f 16 11 	mov.b	r15,	&0x1116	
    53e0:	1f 43       	mov	#1,	r15	;r3 As==01
    53e2:	4e 4a       	mov.b	r10,	r14	
    53e4:	7e f0 0f 00 	and.b	#15,	r14	;#0x000f
    53e8:	4e 93       	tst.b	r14		
    53ea:	03 24       	jz	$+8      	;abs 0x53f2
    53ec:	0f 5f       	rla	r15		
    53ee:	7e 53       	add.b	#-1,	r14	;r3 As==11
    53f0:	fb 3f       	jmp	$-8      	;abs 0x53e8
    53f2:	4c cf       	bic.b	r15,	r12	
    53f4:	c2 4c 4c 11 	mov.b	r12,	&0x114c	
    53f8:	7f 40 07 00 	mov.b	#7,	r15	;#0x0007
    53fc:	b0 12 9c 49 	call	#0x499c	
    5400:	0b 93       	tst	r11		
    5402:	07 24       	jz	$+16     	;abs 0x5412
    5404:	32 d2       	eint			
    5406:	05 3c       	jmp	$+12     	;abs 0x5412
    5408:	4d 4f       	mov.b	r15,	r13	
    540a:	5d 53       	inc.b	r13		
    540c:	c6 3f       	jmp	$-114    	;abs 0x539a
    540e:	1f 43       	mov	#1,	r15	;r3 As==01
    5410:	01 3c       	jmp	$+4      	;abs 0x5414
    5412:	0f 43       	clr	r15		
    5414:	39 41       	pop	r9		
    5416:	3a 41       	pop	r10		
    5418:	3b 41       	pop	r11		
    541a:	30 41       	ret			

0000541c <CC2420TransmitP__releaseSpiResource>:
    541c:	7f 40 03 00 	mov.b	#3,	r15	;#0x0003
    5420:	b0 12 64 53 	call	#0x5364	
    5424:	0f 43       	clr	r15		
    5426:	30 41       	ret			

00005428 <CC2420SpiP__SpiPacket__send.part.133>:
    5428:	0f 42       	mov	r2,	r15	
    542a:	32 c2       	dint			
    542c:	03 43       	nop			
    542e:	f2 f0 bf ff 02 00 	and.b	#-65,	&0x0002	;#0xffbf
    5434:	f2 d0 40 00 00 00 	bis.b	#64,	&0x0000	;#0x0040
    543a:	3f f2       	and	#8,	r15	;r2 As==11
    543c:	01 24       	jz	$+4      	;abs 0x5440
    543e:	32 d2       	eint			
    5440:	b0 12 7a 4a 	call	#0x4a7a	
    5444:	30 41       	ret			

00005446 <CC2420ReceiveP__RXFIFO__beginRead>:
    5446:	0b 12       	push	r11		
    5448:	0a 12       	push	r10		
    544a:	09 12       	push	r9		
    544c:	0a 4f       	mov	r15,	r10	
    544e:	49 4e       	mov.b	r14,	r9	
    5450:	0b 42       	mov	r2,	r11	
    5452:	3b f2       	and	#8,	r11	;r2 As==11
    5454:	32 c2       	dint			
    5456:	03 43       	nop			
    5458:	b0 12 fc 4a 	call	#0x4afc	
    545c:	4f 93       	tst.b	r15		
    545e:	04 24       	jz	$+10     	;abs 0x5468
    5460:	0b 93       	tst	r11		
    5462:	21 24       	jz	$+68     	;abs 0x54a6
    5464:	32 d2       	eint			
    5466:	1f 3c       	jmp	$+64     	;abs 0x54a6
    5468:	0b 93       	tst	r11		
    546a:	01 24       	jz	$+4      	;abs 0x546e
    546c:	32 d2       	eint			
    546e:	b2 40 7f 00 e2 11 	mov	#127,	&0x11e2	;#0x007f
    5474:	7f 40 7f 00 	mov.b	#127,	r15	;#0x007f
    5478:	b0 12 0e 46 	call	#0x460e	
    547c:	4b 4f       	mov.b	r15,	r11	
    547e:	4e 49       	mov.b	r9,	r14	
    5480:	c2 43 e0 11 	mov.b	#0,	&0x11e0	;r3 As==00
    5484:	82 43 d0 11 	mov	#0,	&0x11d0	;r3 As==00
    5488:	82 4a 82 12 	mov	r10,	&0x1282	
    548c:	82 4e f0 17 	mov	r14,	&0x17f0	
    5490:	82 43 ec 17 	mov	#0,	&0x17ec	;r3 As==00
    5494:	0e 93       	tst	r14		
    5496:	03 24       	jz	$+8      	;abs 0x549e
    5498:	b0 12 28 54 	call	#0x5428	
    549c:	05 3c       	jmp	$+12     	;abs 0x54a8
    549e:	7f 42       	mov.b	#8,	r15	;r2 As==11
    54a0:	b0 12 9c 49 	call	#0x499c	
    54a4:	01 3c       	jmp	$+4      	;abs 0x54a8
    54a6:	4b 43       	clr.b	r11		
    54a8:	4f 4b       	mov.b	r11,	r15	
    54aa:	39 41       	pop	r9		
    54ac:	3a 41       	pop	r10		
    54ae:	3b 41       	pop	r11		
    54b0:	30 41       	ret			

000054b2 <CC2420ReceiveP__receive>:
    54b2:	b0 12 62 4b 	call	#0x4b62	
    54b6:	5e 43       	mov.b	#1,	r14	;r3 As==01
    54b8:	1f 42 54 11 	mov	&0x1154,r15	
    54bc:	b0 12 46 54 	call	#0x5446	
    54c0:	30 41       	ret			

000054c2 <CC2420ReceiveP__RXFIFO__continueRead>:
    54c2:	4e 4e       	mov.b	r14,	r14	
    54c4:	c2 43 e0 11 	mov.b	#0,	&0x11e0	;r3 As==00
    54c8:	82 43 d0 11 	mov	#0,	&0x11d0	;r3 As==00
    54cc:	82 4f 82 12 	mov	r15,	&0x1282	
    54d0:	82 4e f0 17 	mov	r14,	&0x17f0	
    54d4:	82 43 ec 17 	mov	#0,	&0x17ec	;r3 As==00
    54d8:	0e 93       	tst	r14		
    54da:	03 24       	jz	$+8      	;abs 0x54e2
    54dc:	b0 12 28 54 	call	#0x5428	
    54e0:	03 3c       	jmp	$+8      	;abs 0x54e8
    54e2:	7f 42       	mov.b	#8,	r15	;r2 As==11
    54e4:	b0 12 9c 49 	call	#0x499c	
    54e8:	0f 43       	clr	r15		
    54ea:	30 41       	ret			

000054ec <CC2420TransmitP__Send__sendDone.isra.139>:
    54ec:	0e 42       	mov	r2,	r14	
    54ee:	32 c2       	dint			
    54f0:	03 43       	nop			
    54f2:	82 4f 50 11 	mov	r15,	&0x1150	
    54f6:	3e f2       	and	#8,	r14	;r2 As==11
    54f8:	01 24       	jz	$+4      	;abs 0x54fc
    54fa:	32 d2       	eint			
    54fc:	6f 42       	mov.b	#4,	r15	;r2 As==10
    54fe:	b0 12 9c 49 	call	#0x499c	
    5502:	30 41       	ret			

00005504 <CC2420TransmitP__signalDone>:
    5504:	0b 12       	push	r11		
    5506:	0b 4f       	mov	r15,	r11	
    5508:	92 43 3e 11 	mov	#1,	&0x113e	;r3 As==01
    550c:	c2 43 76 11 	mov.b	#0,	&0x1176	;r3 As==00
    5510:	b0 12 f0 52 	call	#0x52f0	
    5514:	0f 4b       	mov	r11,	r15	
    5516:	b0 12 ec 54 	call	#0x54ec	
    551a:	3b 41       	pop	r11		
    551c:	30 41       	ret			

0000551e <CC2420TransmitP__attemptSend>:
    551e:	0b 12       	push	r11		
    5520:	0a 12       	push	r10		
    5522:	0b 42       	mov	r2,	r11	
    5524:	3b f2       	and	#8,	r11	;r2 As==11
    5526:	32 c2       	dint			
    5528:	03 43       	nop			
    552a:	b2 92 3e 11 	cmp	#8,	&0x113e	;r2 As==11
    552e:	12 20       	jnz	$+38     	;abs 0x5554
    5530:	7f 40 09 00 	mov.b	#9,	r15	;#0x0009
    5534:	b0 12 14 4b 	call	#0x4b14	
    5538:	b0 12 1c 54 	call	#0x541c	
    553c:	b0 12 9a 4b 	call	#0x4b9a	
    5540:	92 43 3e 11 	mov	#1,	&0x113e	;r3 As==01
    5544:	3f 40 03 00 	mov	#3,	r15	;#0x0003
    5548:	b0 12 ec 54 	call	#0x54ec	
    554c:	0b 93       	tst	r11		
    554e:	2f 24       	jz	$+96     	;abs 0x55ae
    5550:	32 d2       	eint			
    5552:	2d 3c       	jmp	$+92     	;abs 0x55ae
    5554:	b0 12 62 4b 	call	#0x4b62	
    5558:	c2 93 10 18 	tst.b	&0x1810	
    555c:	03 24       	jz	$+8      	;abs 0x5564
    555e:	7f 40 05 00 	mov.b	#5,	r15	;#0x0005
    5562:	01 3c       	jmp	$+4      	;abs 0x5566
    5564:	6f 42       	mov.b	#4,	r15	;r2 As==10
    5566:	b0 12 14 4b 	call	#0x4b14	
    556a:	3f f2       	and	#8,	r15	;r2 As==11
    556c:	04 20       	jnz	$+10     	;abs 0x5576
    556e:	b0 12 14 4b 	call	#0x4b14	
    5572:	3f f2       	and	#8,	r15	;r2 As==11
    5574:	04 20       	jnz	$+10     	;abs 0x557e
    5576:	5a 43       	mov.b	#1,	r10	;r3 As==01
    5578:	3f 40 03 00 	mov	#3,	r15	;#0x0003
    557c:	03 3c       	jmp	$+8      	;abs 0x5584
    557e:	4a 43       	clr.b	r10		
    5580:	3f 40 05 00 	mov	#5,	r15	;#0x0005
    5584:	82 4f 3e 11 	mov	r15,	&0x113e	
    5588:	b0 12 9a 4b 	call	#0x4b9a	
    558c:	0b 93       	tst	r11		
    558e:	01 24       	jz	$+4      	;abs 0x5592
    5590:	32 d2       	eint			
    5592:	4a 93       	tst.b	r10		
    5594:	07 24       	jz	$+16     	;abs 0x55a4
    5596:	c2 43 5d 11 	mov.b	#0,	&0x115d	;r3 As==00
    559a:	b0 12 1c 54 	call	#0x541c	
    559e:	b0 12 0a 4d 	call	#0x4d0a	
    55a2:	05 3c       	jmp	$+12     	;abs 0x55ae
    55a4:	3e 40 40 01 	mov	#320,	r14	;#0x0140
    55a8:	0f 43       	clr	r15		
    55aa:	b0 12 d4 4c 	call	#0x4cd4	
    55ae:	3a 41       	pop	r10		
    55b0:	3b 41       	pop	r11		
    55b2:	30 41       	ret			

000055b4 <CC2420SpiP__Reg__write>:
    55b4:	0b 12       	push	r11		
    55b6:	0a 12       	push	r10		
    55b8:	09 12       	push	r9		
    55ba:	49 4f       	mov.b	r15,	r9	
    55bc:	0a 4e       	mov	r14,	r10	
    55be:	0b 42       	mov	r2,	r11	
    55c0:	3b f2       	and	#8,	r11	;r2 As==11
    55c2:	32 c2       	dint			
    55c4:	03 43       	nop			
    55c6:	b0 12 fc 4a 	call	#0x4afc	
    55ca:	4f 93       	tst.b	r15		
    55cc:	04 24       	jz	$+10     	;abs 0x55d6
    55ce:	0b 93       	tst	r11		
    55d0:	10 24       	jz	$+34     	;abs 0x55f2
    55d2:	32 d2       	eint			
    55d4:	0e 3c       	jmp	$+30     	;abs 0x55f2
    55d6:	0b 93       	tst	r11		
    55d8:	01 24       	jz	$+4      	;abs 0x55dc
    55da:	32 d2       	eint			
    55dc:	4f 49       	mov.b	r9,	r15	
    55de:	b0 12 0e 46 	call	#0x460e	
    55e2:	0f 4a       	mov	r10,	r15	
    55e4:	8f 10       	swpb	r15		
    55e6:	b0 12 0e 46 	call	#0x460e	
    55ea:	4f 4a       	mov.b	r10,	r15	
    55ec:	b0 12 0e 46 	call	#0x460e	
    55f0:	01 3c       	jmp	$+4      	;abs 0x55f4
    55f2:	4f 43       	clr.b	r15		
    55f4:	39 41       	pop	r9		
    55f6:	3a 41       	pop	r10		
    55f8:	3b 41       	pop	r11		
    55fa:	30 41       	ret			

000055fc <CC2420TransmitP__loadTXFIFO>:
    55fc:	0b 12       	push	r11		
    55fe:	0a 12       	push	r10		
    5600:	09 12       	push	r9		
    5602:	1b 42 c2 11 	mov	&0x11c2,r11	
    5606:	5a 4b 30 00 	mov.b	48(r11),r10	;0x0030(r11)
    560a:	4a 93       	tst.b	r10		
    560c:	02 20       	jnz	$+6      	;abs 0x5612
    560e:	7a 40 1f 00 	mov.b	#31,	r10	;#0x001f
    5612:	b0 12 62 4b 	call	#0x4b62	
    5616:	c2 9a 93 11 	cmp.b	r10,	&0x1193	
    561a:	07 24       	jz	$+16     	;abs 0x562a
    561c:	4e 4a       	mov.b	r10,	r14	
    561e:	3e d0 e0 80 	bis	#-32544,r14	;#0x80e0
    5622:	7f 40 15 00 	mov.b	#21,	r15	;#0x0015
    5626:	b0 12 b4 55 	call	#0x55b4	
    562a:	c2 4a 93 11 	mov.b	r10,	&0x1193	
    562e:	69 4b       	mov.b	@r11,	r9	
    5630:	0a 42       	mov	r2,	r10	
    5632:	3a f2       	and	#8,	r10	;r2 As==11
    5634:	32 c2       	dint			
    5636:	03 43       	nop			
    5638:	b0 12 fc 4a 	call	#0x4afc	
    563c:	4f 93       	tst.b	r15		
    563e:	04 24       	jz	$+10     	;abs 0x5648
    5640:	0a 93       	tst	r10		
    5642:	21 24       	jz	$+68     	;abs 0x5686
    5644:	32 d2       	eint			
    5646:	1f 3c       	jmp	$+64     	;abs 0x5686
    5648:	0a 93       	tst	r10		
    564a:	01 24       	jz	$+4      	;abs 0x564e
    564c:	32 d2       	eint			
    564e:	b2 40 3e 00 e2 11 	mov	#62,	&0x11e2	;#0x003e
    5654:	7f 40 3e 00 	mov.b	#62,	r15	;#0x003e
    5658:	b0 12 0e 46 	call	#0x460e	
    565c:	4f 49       	mov.b	r9,	r15	
    565e:	7f 53       	add.b	#-1,	r15	;r3 As==11
    5660:	4f 4f       	mov.b	r15,	r15	
    5662:	c2 43 e0 11 	mov.b	#0,	&0x11e0	;r3 As==00
    5666:	82 4b d0 11 	mov	r11,	&0x11d0	
    566a:	82 43 82 12 	mov	#0,	&0x1282	;r3 As==00
    566e:	82 4f f0 17 	mov	r15,	&0x17f0	
    5672:	82 43 ec 17 	mov	#0,	&0x17ec	;r3 As==00
    5676:	0f 93       	tst	r15		
    5678:	03 24       	jz	$+8      	;abs 0x5680
    567a:	b0 12 28 54 	call	#0x5428	
    567e:	03 3c       	jmp	$+8      	;abs 0x5686
    5680:	7f 42       	mov.b	#8,	r15	;r2 As==11
    5682:	b0 12 9c 49 	call	#0x499c	
    5686:	39 41       	pop	r9		
    5688:	3a 41       	pop	r10		
    568a:	3b 41       	pop	r11		
    568c:	30 41       	ret			

0000568e <CC2420ControlP__writeFsctrl>:
    568e:	0e 42       	mov	r2,	r14	
    5690:	32 c2       	dint			
    5692:	03 43       	nop			
    5694:	5f 42 14 15 	mov.b	&0x1514,r15	
    5698:	3e f2       	and	#8,	r14	;r2 As==11
    569a:	01 24       	jz	$+4      	;abs 0x569e
    569c:	32 d2       	eint			
    569e:	4e 4f       	mov.b	r15,	r14	
    56a0:	0f 4e       	mov	r14,	r15	
    56a2:	0f 5f       	rla	r15		
    56a4:	0f 5f       	rla	r15		
    56a6:	0f 5e       	add	r14,	r15	
    56a8:	3f 50 2e 01 	add	#302,	r15	;#0x012e
    56ac:	0e 4f       	mov	r15,	r14	
    56ae:	3e d0 00 40 	bis	#16384,	r14	;#0x4000
    56b2:	7f 40 18 00 	mov.b	#24,	r15	;#0x0018
    56b6:	b0 12 b4 55 	call	#0x55b4	
    56ba:	30 41       	ret			

000056bc <CC2420ControlP__writeMdmctrl0>:
    56bc:	0b 12       	push	r11		
    56be:	0b 42       	mov	r2,	r11	
    56c0:	3b f2       	and	#8,	r11	;r2 As==11
    56c2:	32 c2       	dint			
    56c4:	03 43       	nop			
    56c6:	c2 93 94 11 	tst.b	&0x1194	
    56ca:	04 24       	jz	$+10     	;abs 0x56d4
    56cc:	1e 43       	mov	#1,	r14	;r3 As==01
    56ce:	c2 93 fc 17 	tst.b	&0x17fc	
    56d2:	01 20       	jnz	$+4      	;abs 0x56d6
    56d4:	0e 43       	clr	r14		
    56d6:	4e 4e       	mov.b	r14,	r14	
    56d8:	8e 10       	swpb	r14		
    56da:	0e 5e       	rla	r14		
    56dc:	0e 5e       	rla	r14		
    56de:	0e 5e       	rla	r14		
    56e0:	c2 93 be 11 	tst.b	&0x11be	
    56e4:	04 24       	jz	$+10     	;abs 0x56ee
    56e6:	1f 43       	mov	#1,	r15	;r3 As==01
    56e8:	c2 93 9a 12 	tst.b	&0x129a	
    56ec:	01 20       	jnz	$+4      	;abs 0x56f0
    56ee:	0f 43       	clr	r15		
    56f0:	3e d0 e2 22 	bis	#8930,	r14	;#0x22e2
    56f4:	0f 5f       	rla	r15		
    56f6:	0f 5f       	rla	r15		
    56f8:	0f 5f       	rla	r15		
    56fa:	0f 5f       	rla	r15		
    56fc:	0e df       	bis	r15,	r14	
    56fe:	7f 40 11 00 	mov.b	#17,	r15	;#0x0011
    5702:	b0 12 b4 55 	call	#0x55b4	
    5706:	0b 93       	tst	r11		
    5708:	01 24       	jz	$+4      	;abs 0x570c
    570a:	32 d2       	eint			
    570c:	3b 41       	pop	r11		
    570e:	30 41       	ret			

00005710 <CC2420SpiP__Ram__write>:
    5710:	0b 12       	push	r11		
    5712:	0a 12       	push	r10		
    5714:	09 12       	push	r9		
    5716:	08 12       	push	r8		
    5718:	07 12       	push	r7		
    571a:	08 4f       	mov	r15,	r8	
    571c:	4a 4e       	mov.b	r14,	r10	
    571e:	07 4d       	mov	r13,	r7	
    5720:	4b 4c       	mov.b	r12,	r11	
    5722:	09 42       	mov	r2,	r9	
    5724:	39 f2       	and	#8,	r9	;r2 As==11
    5726:	32 c2       	dint			
    5728:	03 43       	nop			
    572a:	b0 12 fc 4a 	call	#0x4afc	
    572e:	4f 93       	tst.b	r15		
    5730:	04 24       	jz	$+10     	;abs 0x573a
    5732:	09 93       	tst	r9		
    5734:	22 24       	jz	$+70     	;abs 0x577a
    5736:	32 d2       	eint			
    5738:	20 3c       	jmp	$+66     	;abs 0x577a
    573a:	09 93       	tst	r9		
    573c:	01 24       	jz	$+4      	;abs 0x5740
    573e:	32 d2       	eint			
    5740:	4a 4a       	mov.b	r10,	r10	
    5742:	0a 58       	add	r8,	r10	
    5744:	4f 4a       	mov.b	r10,	r15	
    5746:	7f d0 80 ff 	bis.b	#-128,	r15	;#0xff80
    574a:	b0 12 0e 46 	call	#0x460e	
    574e:	49 4f       	mov.b	r15,	r9	
    5750:	0e 4a       	mov	r10,	r14	
    5752:	12 c3       	clrc			
    5754:	0e 10       	rrc	r14		
    5756:	4f 4e       	mov.b	r14,	r15	
    5758:	7f f0 c0 ff 	and.b	#-64,	r15	;#0xffc0
    575c:	b0 12 0e 46 	call	#0x460e	
    5760:	4a 4b       	mov.b	r11,	r10	
    5762:	08 3c       	jmp	$+18     	;abs 0x5774
    5764:	4f 4b       	mov.b	r11,	r15	
    5766:	0e 4a       	mov	r10,	r14	
    5768:	0e 8f       	sub	r15,	r14	
    576a:	0e 57       	add	r7,	r14	
    576c:	6f 4e       	mov.b	@r14,	r15	
    576e:	b0 12 0e 46 	call	#0x460e	
    5772:	7b 53       	add.b	#-1,	r11	;r3 As==11
    5774:	4b 93       	tst.b	r11		
    5776:	f6 23       	jnz	$-18     	;abs 0x5764
    5778:	01 3c       	jmp	$+4      	;abs 0x577c
    577a:	49 43       	clr.b	r9		
    577c:	4f 49       	mov.b	r9,	r15	
    577e:	37 41       	pop	r7		
    5780:	38 41       	pop	r8		
    5782:	39 41       	pop	r9		
    5784:	3a 41       	pop	r10		
    5786:	3b 41       	pop	r11		
    5788:	30 41       	ret			

0000578a <CC2420ControlP__writeId>:
    578a:	0b 12       	push	r11		
    578c:	31 50 f4 ff 	add	#-12,	r1	;#0xfff4
    5790:	0b 42       	mov	r2,	r11	
    5792:	32 c2       	dint			
    5794:	03 43       	nop			
    5796:	3d 42       	mov	#8,	r13	;r2 As==11
    5798:	3e 40 9c 12 	mov	#4764,	r14	;#0x129c
    579c:	0f 41       	mov	r1,	r15	
    579e:	b0 12 d6 77 	call	#0x77d6	
    57a2:	1f 42 bc 11 	mov	&0x11bc,r15	
    57a6:	c1 4f 08 00 	mov.b	r15,	8(r1)	;0x0008(r1)
    57aa:	8f 10       	swpb	r15		
    57ac:	c1 4f 09 00 	mov.b	r15,	9(r1)	;0x0009(r1)
    57b0:	1f 42 de 11 	mov	&0x11de,r15	
    57b4:	c1 4f 0a 00 	mov.b	r15,	10(r1)	;0x000a(r1)
    57b8:	8f 10       	swpb	r15		
    57ba:	c1 4f 0b 00 	mov.b	r15,	11(r1)	;0x000b(r1)
    57be:	3b b2       	bit	#8,	r11	;r2 As==11
    57c0:	01 24       	jz	$+4      	;abs 0x57c4
    57c2:	32 d2       	eint			
    57c4:	7c 40 0c 00 	mov.b	#12,	r12	;#0x000c
    57c8:	0d 41       	mov	r1,	r13	
    57ca:	4e 43       	clr.b	r14		
    57cc:	3f 40 60 01 	mov	#352,	r15	;#0x0160
    57d0:	b0 12 10 57 	call	#0x5710	
    57d4:	31 50 0c 00 	add	#12,	r1	;#0x000c
    57d8:	3b 41       	pop	r11		
    57da:	30 41       	ret			

000057dc <CC2420ActiveMessageP__AMSend__sendDone.isra.158>:
    57dc:	0e 93       	tst	r14		
    57de:	03 24       	jz	$+8      	;abs 0x57e6
    57e0:	b0 12 c4 4e 	call	#0x4ec4	
    57e4:	1c 3c       	jmp	$+58     	;abs 0x581e
    57e6:	0d 42       	mov	r2,	r13	
    57e8:	3d f2       	and	#8,	r13	;r2 As==11
    57ea:	32 c2       	dint			
    57ec:	03 43       	nop			
    57ee:	5c 42 14 18 	mov.b	&0x1814,r12	
    57f2:	4e 4c       	mov.b	r12,	r14	
    57f4:	0e 5e       	rla	r14		
    57f6:	1f 9e ee 11 	cmp	4590(r14),r15	;0x11ee(r14)
    57fa:	0e 20       	jnz	$+30     	;abs 0x5818
    57fc:	4f 4c       	mov.b	r12,	r15	
    57fe:	5f 53       	inc.b	r15		
    5800:	c2 4f 14 18 	mov.b	r15,	&0x1814	
    5804:	7f 90 0c 00 	cmp.b	#12,	r15	;#0x000c
    5808:	02 28       	jnc	$+6      	;abs 0x580e
    580a:	c2 43 14 18 	mov.b	#0,	&0x1814	;r3 As==00
    580e:	c2 93 72 11 	tst.b	&0x1172	
    5812:	02 24       	jz	$+6      	;abs 0x5818
    5814:	c2 43 72 11 	mov.b	#0,	&0x1172	;r3 As==00
    5818:	0d 93       	tst	r13		
    581a:	01 24       	jz	$+4      	;abs 0x581e
    581c:	32 d2       	eint			
    581e:	5f 43       	mov.b	#1,	r15	;r3 As==01
    5820:	b0 12 9c 49 	call	#0x499c	
    5824:	30 41       	ret			

00005826 <HdlcTranslateC__UartStream__send.constprop.178>:
    5826:	b0 12 b0 4f 	call	#0x4fb0	
    582a:	4f 93       	tst.b	r15		
    582c:	11 24       	jz	$+36     	;abs 0x5850
    582e:	82 93 fa 17 	tst	&0x17fa	
    5832:	10 20       	jnz	$+34     	;abs 0x5854
    5834:	b2 40 91 11 fa 17 	mov	#4497,	&0x17fa	;#0x1191
    583a:	92 43 88 12 	mov	#1,	&0x1288	;r3 As==01
    583e:	c2 43 56 11 	mov.b	#0,	&0x1156	;r3 As==00
    5842:	92 43 c0 11 	mov	#1,	&0x11c0	;r3 As==01
    5846:	d2 42 91 11 7f 00 	mov.b	&0x1191,&0x007f	
    584c:	0f 43       	clr	r15		
    584e:	30 41       	ret			
    5850:	1f 43       	mov	#1,	r15	;r3 As==01
    5852:	30 41       	ret			
    5854:	3f 40 05 00 	mov	#5,	r15	;#0x0005
    5858:	30 41       	ret			

0000585a <SerialP__SerialFrameComm__putDelimiter>:
    585a:	0f 42       	mov	r2,	r15	
    585c:	32 c2       	dint			
    585e:	03 43       	nop			
    5860:	f2 f0 fe ff 1a 11 	and.b	#-2,	&0x111a	;#0xfffe
    5866:	f2 40 7e 00 91 11 	mov.b	#126,	&0x1191	;#0x007e
    586c:	3f f2       	and	#8,	r15	;r2 As==11
    586e:	01 24       	jz	$+4      	;abs 0x5872
    5870:	32 d2       	eint			
    5872:	b0 12 26 58 	call	#0x5826	
    5876:	30 41       	ret			

00005878 <SerialP__SerialFrameComm__putData>:
    5878:	4e 4f       	mov.b	r15,	r14	
    587a:	7e 50 83 ff 	add.b	#-125,	r14	;#0xff83
    587e:	6e 93       	cmp.b	#2,	r14	;r3 As==10
    5880:	0a 2c       	jc	$+22     	;abs 0x5896
    5882:	d2 d3 1a 11 	bis.b	#1,	&0x111a	;r3 As==01
    5886:	7f e0 20 00 	xor.b	#32,	r15	;#0x0020
    588a:	c2 4f 86 12 	mov.b	r15,	&0x1286	
    588e:	f2 40 7d 00 91 11 	mov.b	#125,	&0x1191	;#0x007d
    5894:	02 3c       	jmp	$+6      	;abs 0x589a
    5896:	c2 4f 91 11 	mov.b	r15,	&0x1191	
    589a:	b0 12 26 58 	call	#0x5826	
    589e:	30 41       	ret			

000058a0 <HdlcTranslateC__UartStream__sendDone.isra.127>:
    58a0:	0b 12       	push	r11		
    58a2:	0a 12       	push	r10		
    58a4:	09 12       	push	r9		
    58a6:	d2 b3 1a 11 	bit.b	#1,	&0x111a	;r3 As==01
    58aa:	09 24       	jz	$+20     	;abs 0x58be
    58ac:	f2 f0 fe ff 1a 11 	and.b	#-2,	&0x111a	;#0xfffe
    58b2:	d2 42 86 12 91 11 	mov.b	&0x1286,&0x1191	
    58b8:	b0 12 26 58 	call	#0x5826	
    58bc:	87 3c       	jmp	$+272    	;abs 0x59cc
    58be:	5f 42 84 12 	mov.b	&0x1284,r15	
    58c2:	7f 53       	add.b	#-1,	r15	;r3 As==11
    58c4:	7f 92       	cmp.b	#8,	r15	;r2 As==11
    58c6:	7d 2c       	jc	$+252    	;abs 0x59c2
    58c8:	4f 4f       	mov.b	r15,	r15	
    58ca:	0f 5f       	rla	r15		
    58cc:	10 4f 3c 79 	br	31036(r15)	;0x793c(r15)
    58d0:	5f 42 d9 11 	mov.b	&0x11d9,r15	
    58d4:	b0 12 78 58 	call	#0x5878	
    58d8:	0b 4f       	mov	r15,	r11	
    58da:	f2 40 03 00 84 12 	mov.b	#3,	&0x1284	;#0x0003
    58e0:	5e 42 d9 11 	mov.b	&0x11d9,r14	
    58e4:	0a 3c       	jmp	$+22     	;abs 0x58fa
    58e6:	5f 42 ea 17 	mov.b	&0x17ea,r15	
    58ea:	b0 12 78 58 	call	#0x5878	
    58ee:	0b 4f       	mov	r15,	r11	
    58f0:	f2 40 03 00 84 12 	mov.b	#3,	&0x1284	;#0x0003
    58f6:	5e 42 ea 17 	mov.b	&0x17ea,r14	
    58fa:	1f 42 12 18 	mov	&0x1812,r15	
    58fe:	b0 12 58 49 	call	#0x4958	
    5902:	82 4f 12 18 	mov	r15,	&0x1812	
    5906:	5b 3c       	jmp	$+184    	;abs 0x59be
    5908:	5f 42 15 12 	mov.b	&0x1215,r15	
    590c:	0f 5f       	rla	r15		
    590e:	3f 50 e6 11 	add	#4582,	r15	;#0x11e6
    5912:	5f 4f 01 00 	mov.b	1(r15),	r15	;0x0001(r15)
    5916:	b0 12 78 58 	call	#0x5878	
    591a:	0b 4f       	mov	r15,	r11	
    591c:	59 42 15 12 	mov.b	&0x1215,r9	
    5920:	4a 49       	mov.b	r9,	r10	
    5922:	0d 4a       	mov	r10,	r13	
    5924:	0d 5d       	rla	r13		
    5926:	3d 50 e6 11 	add	#4582,	r13	;#0x11e6
    592a:	5e 4d 01 00 	mov.b	1(r13),	r14	;0x0001(r13)
    592e:	1f 42 12 18 	mov	&0x1812,r15	
    5932:	b0 12 58 49 	call	#0x4958	
    5936:	82 4f 12 18 	mov	r15,	&0x1812	
    593a:	5d 42 d2 11 	mov.b	&0x11d2,r13	
    593e:	5d 53       	inc.b	r13		
    5940:	c2 4d d2 11 	mov.b	r13,	&0x11d2	
    5944:	59 93       	cmp.b	#1,	r9	;r3 As==01
    5946:	1b 20       	jnz	$+56     	;abs 0x597e
    5948:	5e 42 2a 11 	mov.b	&0x112a,r14	
    594c:	4f 4e       	mov.b	r14,	r15	
    594e:	1f 52 30 11 	add	&0x1130,r15	
    5952:	6f 4f       	mov.b	@r15,	r15	
    5954:	5e 53       	inc.b	r14		
    5956:	c2 4e 2a 11 	mov.b	r14,	&0x112a	
    595a:	c2 9e 2c 11 	cmp.b	r14,	&0x112c	
    595e:	03 2c       	jc	$+8      	;abs 0x5966
    5960:	e2 43 e8 11 	mov.b	#2,	&0x11e8	;r3 As==10
    5964:	4f 43       	clr.b	r15		
    5966:	0e 4a       	mov	r10,	r14	
    5968:	0e 5e       	rla	r14		
    596a:	3e 50 e6 11 	add	#4582,	r14	;#0x11e6
    596e:	ee 93 00 00 	cmp.b	#2,	0(r14)	;r3 As==10, 0x0000(r14)
    5972:	05 24       	jz	$+12     	;abs 0x597e
    5974:	7d 93       	cmp.b	#-1,	r13	;r3 As==11
    5976:	03 24       	jz	$+8      	;abs 0x597e
    5978:	ce 4f 01 00 	mov.b	r15,	1(r14)	;0x0001(r14)
    597c:	20 3c       	jmp	$+66     	;abs 0x59be
    597e:	e2 42 84 12 	mov.b	#4,	&0x1284	;r2 As==10
    5982:	1d 3c       	jmp	$+60     	;abs 0x59be
    5984:	5f 42 12 18 	mov.b	&0x1812,r15	
    5988:	b0 12 78 58 	call	#0x5878	
    598c:	0b 4f       	mov	r15,	r11	
    598e:	f2 40 05 00 84 12 	mov.b	#5,	&0x1284	;#0x0005
    5994:	14 3c       	jmp	$+42     	;abs 0x59be
    5996:	1f 42 12 18 	mov	&0x1812,r15	
    599a:	8f 10       	swpb	r15		
    599c:	b0 12 78 58 	call	#0x5878	
    59a0:	0b 4f       	mov	r15,	r11	
    59a2:	f2 40 06 00 84 12 	mov.b	#6,	&0x1284	;#0x0006
    59a8:	0a 3c       	jmp	$+22     	;abs 0x59be
    59aa:	b0 12 5a 58 	call	#0x585a	
    59ae:	0b 4f       	mov	r15,	r11	
    59b0:	f2 40 07 00 84 12 	mov.b	#7,	&0x1284	;#0x0007
    59b6:	03 3c       	jmp	$+8      	;abs 0x59be
    59b8:	f2 42 84 12 	mov.b	#8,	&0x1284	;r2 As==11
    59bc:	05 3c       	jmp	$+12     	;abs 0x59c8
    59be:	0b 93       	tst	r11		
    59c0:	05 24       	jz	$+12     	;abs 0x59cc
    59c2:	f2 40 09 00 84 12 	mov.b	#9,	&0x1284	;#0x0009
    59c8:	b0 12 50 4a 	call	#0x4a50	
    59cc:	39 41       	pop	r9		
    59ce:	3a 41       	pop	r10		
    59d0:	3b 41       	pop	r11		
    59d2:	30 41       	ret			

000059d4 <Msp430UartP__0__ResourceConfigure__configure.constprop.179>:
    59d4:	0b 12       	push	r11		
    59d6:	e2 42 f3 17 	mov.b	#4,	&0x17f3	;r2 As==10
    59da:	0b 42       	mov	r2,	r11	
    59dc:	3b f2       	and	#8,	r11	;r2 As==11
    59de:	32 c2       	dint			
    59e0:	03 43       	nop			
    59e2:	d2 43 78 00 	mov.b	#1,	&0x0078	;r3 As==01
    59e6:	b0 12 fc 46 	call	#0x46fc	
    59ea:	5f 42 9f 79 	mov.b	&0x799f,r15	
    59ee:	7f f0 fa ff 	and.b	#-6,	r15	;#0xfffa
    59f2:	5f d3       	bis.b	#1,	r15	;r3 As==01
    59f4:	c2 4f 78 00 	mov.b	r15,	&0x0078	
    59f8:	d2 42 a0 79 79 00 	mov.b	&0x79a0,&0x0079	
    59fe:	d2 42 a1 79 7a 00 	mov.b	&0x79a1,&0x007a	
    5a04:	f2 40 09 00 7c 00 	mov.b	#9,	&0x007c	;#0x0009
    5a0a:	c2 43 7d 00 	mov.b	#0,	&0x007d	;r3 As==00
    5a0e:	f2 40 10 00 7b 00 	mov.b	#16,	&0x007b	;#0x0010
    5a14:	5f 42 a2 79 	mov.b	&0x79a2,r15	
    5a18:	7f f0 03 00 	and.b	#3,	r15	;#0x0003
    5a1c:	7f 90 03 00 	cmp.b	#3,	r15	;#0x0003
    5a20:	0b 20       	jnz	$+24     	;abs 0x5a38
    5a22:	f2 d0 40 00 1b 00 	bis.b	#64,	&0x001b	;#0x0040
    5a28:	f2 d0 80 ff 1b 00 	bis.b	#-128,	&0x001b	;#0xff80
    5a2e:	5f 42 05 00 	mov.b	&0x0005,r15	
    5a32:	7f d0 30 00 	bis.b	#48,	r15	;#0x0030
    5a36:	0f 3c       	jmp	$+32     	;abs 0x5a56
    5a38:	6f 93       	cmp.b	#2,	r15	;r3 As==10
    5a3a:	10 20       	jnz	$+34     	;abs 0x5a5c
    5a3c:	f2 f0 df ff 05 00 	and.b	#-33,	&0x0005	;#0xffdf
    5a42:	f2 f0 bf ff 1b 00 	and.b	#-65,	&0x001b	;#0xffbf
    5a48:	f2 d0 80 ff 1b 00 	bis.b	#-128,	&0x001b	;#0xff80
    5a4e:	5f 42 05 00 	mov.b	&0x0005,r15	
    5a52:	7f d0 10 00 	bis.b	#16,	r15	;#0x0010
    5a56:	c2 4f 05 00 	mov.b	r15,	&0x0005	
    5a5a:	12 3c       	jmp	$+38     	;abs 0x5a80
    5a5c:	5f 93       	cmp.b	#1,	r15	;r3 As==01
    5a5e:	0e 20       	jnz	$+30     	;abs 0x5a7c
    5a60:	f2 f0 ef ff 05 00 	and.b	#-17,	&0x0005	;#0xffef
    5a66:	f2 f0 7f 00 1b 00 	and.b	#127,	&0x001b	;#0x007f
    5a6c:	f2 d0 40 00 1b 00 	bis.b	#64,	&0x001b	;#0x0040
    5a72:	5f 42 05 00 	mov.b	&0x0005,r15	
    5a76:	7f d0 20 00 	bis.b	#32,	r15	;#0x0020
    5a7a:	ed 3f       	jmp	$-36     	;abs 0x5a56
    5a7c:	b0 12 1a 47 	call	#0x471a	
    5a80:	f2 f0 fe ff 78 00 	and.b	#-2,	&0x0078	;#0xfffe
    5a86:	f2 f0 cf ff 01 00 	and.b	#-49,	&0x0001	;#0xffcf
    5a8c:	f2 f0 cf ff 03 00 	and.b	#-49,	&0x0003	;#0xffcf
    5a92:	0b 93       	tst	r11		
    5a94:	01 24       	jz	$+4      	;abs 0x5a98
    5a96:	32 d2       	eint			
    5a98:	0f 42       	mov	r2,	r15	
    5a9a:	32 c2       	dint			
    5a9c:	03 43       	nop			
    5a9e:	f2 f0 cf ff 03 00 	and.b	#-49,	&0x0003	;#0xffcf
    5aa4:	f2 d0 30 00 01 00 	bis.b	#48,	&0x0001	;#0x0030
    5aaa:	3f f2       	and	#8,	r15	;r2 As==11
    5aac:	01 24       	jz	$+4      	;abs 0x5ab0
    5aae:	32 d2       	eint			
    5ab0:	3b 41       	pop	r11		
    5ab2:	30 41       	ret			

00005ab4 <StateImplP__State__requestState.constprop.180>:
    5ab4:	0e 42       	mov	r2,	r14	
    5ab6:	3e f2       	and	#8,	r14	;r2 As==11
    5ab8:	32 c2       	dint			
    5aba:	03 43       	nop			
    5abc:	4f 4f       	mov.b	r15,	r15	
    5abe:	3f 50 8c 12 	add	#4748,	r15	;#0x128c
    5ac2:	cf 93 00 00 	tst.b	0(r15)		;0x0000(r15)
    5ac6:	04 20       	jnz	$+10     	;abs 0x5ad0
    5ac8:	df 43 00 00 	mov.b	#1,	0(r15)	;r3 As==01, 0x0000(r15)
    5acc:	0f 43       	clr	r15		
    5ace:	01 3c       	jmp	$+4      	;abs 0x5ad2
    5ad0:	1f 43       	mov	#1,	r15	;r3 As==01
    5ad2:	0e 93       	tst	r14		
    5ad4:	01 24       	jz	$+4      	;abs 0x5ad8
    5ad6:	32 d2       	eint			
    5ad8:	30 41       	ret			

00005ada <CC2420SpiP__Resource__request>:
    5ada:	0b 12       	push	r11		
    5adc:	0a 12       	push	r10		
    5ade:	4a 4f       	mov.b	r15,	r10	
    5ae0:	0b 42       	mov	r2,	r11	
    5ae2:	3b f2       	and	#8,	r11	;r2 As==11
    5ae4:	32 c2       	dint			
    5ae6:	03 43       	nop			
    5ae8:	4f 43       	clr.b	r15		
    5aea:	b0 12 b4 5a 	call	#0x5ab4	
    5aee:	0f 93       	tst	r15		
    5af0:	3b 20       	jnz	$+120    	;abs 0x5b68
    5af2:	c2 4a 16 11 	mov.b	r10,	&0x1116	
    5af6:	c2 93 13 11 	tst.b	&0x1113	
    5afa:	04 20       	jnz	$+10     	;abs 0x5b04
    5afc:	1f 43       	mov	#1,	r15	;r3 As==01
    5afe:	a2 92 b8 11 	cmp	#4,	&0x11b8	;r2 As==10
    5b02:	01 24       	jz	$+4      	;abs 0x5b06
    5b04:	0f 43       	clr	r15		
    5b06:	4f 93       	tst.b	r15		
    5b08:	05 24       	jz	$+12     	;abs 0x5b14
    5b0a:	7f 40 07 00 	mov.b	#7,	r15	;#0x0007
    5b0e:	b0 12 9c 49 	call	#0x499c	
    5b12:	35 3c       	jmp	$+108    	;abs 0x5b7e
    5b14:	c2 93 12 11 	tst.b	&0x1112	
    5b18:	32 24       	jz	$+102    	;abs 0x5b7e
    5b1a:	1f 43       	mov	#1,	r15	;r3 As==01
    5b1c:	f2 93 d8 11 	cmp.b	#-1,	&0x11d8	;r3 As==11
    5b20:	04 20       	jnz	$+10     	;abs 0x5b2a
    5b22:	c2 93 14 11 	tst.b	&0x1114	
    5b26:	01 24       	jz	$+4      	;abs 0x5b2a
    5b28:	0f 43       	clr	r15		
    5b2a:	0f 93       	tst	r15		
    5b2c:	28 20       	jnz	$+82     	;abs 0x5b7e
    5b2e:	f2 93 15 11 	cmp.b	#-1,	&0x1115	;r3 As==11
    5b32:	03 20       	jnz	$+8      	;abs 0x5b3a
    5b34:	c2 43 15 11 	mov.b	#0,	&0x1115	;r3 As==00
    5b38:	04 3c       	jmp	$+10     	;abs 0x5b42
    5b3a:	5f 42 14 11 	mov.b	&0x1114,r15	
    5b3e:	cf 43 d8 11 	mov.b	#0,	4568(r15);r3 As==00, 0x11d8(r15)
    5b42:	c2 43 14 11 	mov.b	#0,	&0x1114	;r3 As==00
    5b46:	82 93 b8 11 	tst	&0x11b8	
    5b4a:	19 20       	jnz	$+52     	;abs 0x5b7e
    5b4c:	92 43 b8 11 	mov	#1,	&0x11b8	;r3 As==01
    5b50:	f2 93 15 11 	cmp.b	#-1,	&0x1115	;r3 As==11
    5b54:	03 24       	jz	$+8      	;abs 0x5b5c
    5b56:	b0 12 34 4f 	call	#0x4f34	
    5b5a:	01 3c       	jmp	$+4      	;abs 0x5b5e
    5b5c:	7f 43       	mov.b	#-1,	r15	;r3 As==11
    5b5e:	c2 4f 12 11 	mov.b	r15,	&0x1112	
    5b62:	b0 12 b0 52 	call	#0x52b0	
    5b66:	0b 3c       	jmp	$+24     	;abs 0x5b7e
    5b68:	1e 43       	mov	#1,	r14	;r3 As==01
    5b6a:	4f 4a       	mov.b	r10,	r15	
    5b6c:	7f f0 0f 00 	and.b	#15,	r15	;#0x000f
    5b70:	4f 93       	tst.b	r15		
    5b72:	03 24       	jz	$+8      	;abs 0x5b7a
    5b74:	0e 5e       	rla	r14		
    5b76:	7f 53       	add.b	#-1,	r15	;r3 As==11
    5b78:	fb 3f       	jmp	$-8      	;abs 0x5b70
    5b7a:	c2 de 4c 11 	bis.b	r14,	&0x114c	
    5b7e:	0b 93       	tst	r11		
    5b80:	01 24       	jz	$+4      	;abs 0x5b84
    5b82:	32 d2       	eint			
    5b84:	0f 43       	clr	r15		
    5b86:	3a 41       	pop	r10		
    5b88:	3b 41       	pop	r11		
    5b8a:	30 41       	ret			

00005b8c <HplMsp430Usart0P__Usart__setModeSpi.constprop.181>:
    5b8c:	0b 12       	push	r11		
    5b8e:	0b 42       	mov	r2,	r11	
    5b90:	32 c2       	dint			
    5b92:	03 43       	nop			
    5b94:	5f 43       	mov.b	#1,	r15	;r3 As==01
    5b96:	b0 12 04 4f 	call	#0x4f04	
    5b9a:	f2 f0 da ff 70 00 	and.b	#-38,	&0x0070	;#0xffda
    5ba0:	5f 43       	mov.b	#1,	r15	;r3 As==01
    5ba2:	b0 12 04 4f 	call	#0x4f04	
    5ba6:	f2 f0 3f 00 04 00 	and.b	#63,	&0x0004	;#0x003f
    5bac:	f2 f0 ef ff 1b 00 	and.b	#-17,	&0x001b	;#0xffef
    5bb2:	f2 f0 df ff 1b 00 	and.b	#-33,	&0x001b	;#0xffdf
    5bb8:	5f 42 ba 79 	mov.b	&0x79ba,r15	
    5bbc:	7f d0 05 00 	bis.b	#5,	r15	;#0x0005
    5bc0:	c2 4f 70 00 	mov.b	r15,	&0x0070	
    5bc4:	d2 42 bb 79 71 00 	mov.b	&0x79bb,&0x0071	
    5bca:	e2 43 74 00 	mov.b	#2,	&0x0074	;r3 As==10
    5bce:	c2 43 75 00 	mov.b	#0,	&0x0075	;r3 As==00
    5bd2:	c2 43 73 00 	mov.b	#0,	&0x0073	;r3 As==00
    5bd6:	e2 d3 1b 00 	bis.b	#2,	&0x001b	;r3 As==10
    5bda:	e2 d2 1b 00 	bis.b	#4,	&0x001b	;r2 As==10
    5bde:	f2 d2 1b 00 	bis.b	#8,	&0x001b	;r2 As==11
    5be2:	f2 d0 40 00 04 00 	bis.b	#64,	&0x0004	;#0x0040
    5be8:	4f 43       	clr.b	r15		
    5bea:	b0 12 04 4f 	call	#0x4f04	
    5bee:	f2 f0 3f 00 02 00 	and.b	#63,	&0x0002	;#0x003f
    5bf4:	f2 f0 3f 00 00 00 	and.b	#63,	&0x0000	;#0x003f
    5bfa:	3b b2       	bit	#8,	r11	;r2 As==11
    5bfc:	01 24       	jz	$+4      	;abs 0x5c00
    5bfe:	32 d2       	eint			
    5c00:	3b 41       	pop	r11		
    5c02:	30 41       	ret			

00005c04 <CC2420SpiP__Resource__immediateRequest>:
    5c04:	0b 12       	push	r11		
    5c06:	0a 12       	push	r10		
    5c08:	4a 4f       	mov.b	r15,	r10	
    5c0a:	0b 42       	mov	r2,	r11	
    5c0c:	3b f2       	and	#8,	r11	;r2 As==11
    5c0e:	32 c2       	dint			
    5c10:	03 43       	nop			
    5c12:	4f 43       	clr.b	r15		
    5c14:	b0 12 b4 5a 	call	#0x5ab4	
    5c18:	0f 93       	tst	r15		
    5c1a:	04 24       	jz	$+10     	;abs 0x5c24
    5c1c:	0b 93       	tst	r11		
    5c1e:	26 24       	jz	$+78     	;abs 0x5c6c
    5c20:	32 d2       	eint			
    5c22:	24 3c       	jmp	$+74     	;abs 0x5c6c
    5c24:	c2 93 13 11 	tst.b	&0x1113	
    5c28:	04 20       	jnz	$+10     	;abs 0x5c32
    5c2a:	1f 43       	mov	#1,	r15	;r3 As==01
    5c2c:	a2 92 b8 11 	cmp	#4,	&0x11b8	;r2 As==10
    5c30:	01 24       	jz	$+4      	;abs 0x5c34
    5c32:	0f 43       	clr	r15		
    5c34:	4f 93       	tst.b	r15		
    5c36:	0f 20       	jnz	$+32     	;abs 0x5c56
    5c38:	82 93 b8 11 	tst	&0x11b8	
    5c3c:	1c 20       	jnz	$+58     	;abs 0x5c76
    5c3e:	b2 40 03 00 b8 11 	mov	#3,	&0x11b8	;#0x0003
    5c44:	c2 43 12 11 	mov.b	#0,	&0x1112	;r3 As==00
    5c48:	b0 12 b0 52 	call	#0x52b0	
    5c4c:	c2 93 13 11 	tst.b	&0x1113	
    5c50:	06 20       	jnz	$+14     	;abs 0x5c5e
    5c52:	b0 12 8c 5b 	call	#0x5b8c	
    5c56:	c2 4a 16 11 	mov.b	r10,	&0x1116	
    5c5a:	0f 43       	clr	r15		
    5c5c:	03 3c       	jmp	$+8      	;abs 0x5c64
    5c5e:	82 43 b8 11 	mov	#0,	&0x11b8	;r3 As==00
    5c62:	09 3c       	jmp	$+20     	;abs 0x5c76
    5c64:	0b 93       	tst	r11		
    5c66:	04 24       	jz	$+10     	;abs 0x5c70
    5c68:	32 d2       	eint			
    5c6a:	02 3c       	jmp	$+6      	;abs 0x5c70
    5c6c:	3f 40 05 00 	mov	#5,	r15	;#0x0005
    5c70:	3a 41       	pop	r10		
    5c72:	3b 41       	pop	r11		
    5c74:	30 41       	ret			
    5c76:	b0 12 76 4b 	call	#0x4b76	
    5c7a:	1f 43       	mov	#1,	r15	;r3 As==01
    5c7c:	f3 3f       	jmp	$-24     	;abs 0x5c64

00005c7e <CC2420ReceiveP__beginReceive>:
    5c7e:	a2 43 8e 11 	mov	#2,	&0x118e	;r3 As==10
    5c82:	d2 43 b6 11 	mov.b	#1,	&0x11b6	;r3 As==01
    5c86:	e2 92 16 11 	cmp.b	#4,	&0x1116	;r2 As==10
    5c8a:	05 24       	jz	$+12     	;abs 0x5c96
    5c8c:	6f 42       	mov.b	#4,	r15	;r2 As==10
    5c8e:	b0 12 04 5c 	call	#0x5c04	
    5c92:	0f 93       	tst	r15		
    5c94:	03 20       	jnz	$+8      	;abs 0x5c9c
    5c96:	b0 12 b2 54 	call	#0x54b2	
    5c9a:	30 41       	ret			
    5c9c:	6f 42       	mov.b	#4,	r15	;r2 As==10
    5c9e:	b0 12 da 5a 	call	#0x5ada	
    5ca2:	30 41       	ret			

00005ca4 <CC2420ReceiveP__waitForNextPacket>:
    5ca4:	0b 12       	push	r11		
    5ca6:	0b 42       	mov	r2,	r11	
    5ca8:	3b f2       	and	#8,	r11	;r2 As==11
    5caa:	32 c2       	dint			
    5cac:	03 43       	nop			
    5cae:	82 93 8e 11 	tst	&0x118e	
    5cb2:	18 24       	jz	$+50     	;abs 0x5ce4
    5cb4:	c2 43 b6 11 	mov.b	#0,	&0x11b6	;r3 As==00
    5cb8:	5f 42 95 11 	mov.b	&0x1195,r15	
    5cbc:	4f 93       	tst.b	r15		
    5cbe:	03 24       	jz	$+8      	;abs 0x5cc6
    5cc0:	f2 b2 20 00 	bit.b	#8,	&0x0020	;r2 As==11
    5cc4:	05 20       	jnz	$+12     	;abs 0x5cd0
    5cc6:	d2 b3 20 00 	bit.b	#1,	&0x0020	;r3 As==01
    5cca:	08 20       	jnz	$+18     	;abs 0x5cdc
    5ccc:	4f 93       	tst.b	r15		
    5cce:	03 24       	jz	$+8      	;abs 0x5cd6
    5cd0:	7f 53       	add.b	#-1,	r15	;r3 As==11
    5cd2:	c2 4f 95 11 	mov.b	r15,	&0x1195	
    5cd6:	b0 12 7e 5c 	call	#0x5c7e	
    5cda:	07 3c       	jmp	$+16     	;abs 0x5cea
    5cdc:	92 43 8e 11 	mov	#1,	&0x118e	;r3 As==01
    5ce0:	c2 43 95 11 	mov.b	#0,	&0x1195	;r3 As==00
    5ce4:	6f 42       	mov.b	#4,	r15	;r2 As==10
    5ce6:	b0 12 64 53 	call	#0x5364	
    5cea:	0b 93       	tst	r11		
    5cec:	01 24       	jz	$+4      	;abs 0x5cf0
    5cee:	32 d2       	eint			
    5cf0:	3b 41       	pop	r11		
    5cf2:	30 41       	ret			

00005cf4 <CC2420ReceiveP__flush>:
    5cf4:	b0 12 8a 47 	call	#0x478a	
    5cf8:	b0 12 9a 4b 	call	#0x4b9a	
    5cfc:	b0 12 62 4b 	call	#0x4b62	
    5d00:	7f 42       	mov.b	#8,	r15	;r2 As==11
    5d02:	b0 12 14 4b 	call	#0x4b14	
    5d06:	7f 42       	mov.b	#8,	r15	;r2 As==11
    5d08:	b0 12 14 4b 	call	#0x4b14	
    5d0c:	b0 12 9a 4b 	call	#0x4b9a	
    5d10:	6f 42       	mov.b	#4,	r15	;r2 As==10
    5d12:	b0 12 64 53 	call	#0x5364	
    5d16:	b0 12 a4 5c 	call	#0x5ca4	
    5d1a:	30 41       	ret			

00005d1c <Msp430SpiNoDmaP__0__signalDone>:
    5d1c:	0b 12       	push	r11		
    5d1e:	0a 12       	push	r10		
    5d20:	09 12       	push	r9		
    5d22:	08 12       	push	r8		
    5d24:	07 12       	push	r7		
    5d26:	17 42 82 12 	mov	&0x1282,r7	
    5d2a:	c2 93 e0 11 	tst.b	&0x11e0	
    5d2e:	02 24       	jz	$+6      	;abs 0x5d34
    5d30:	30 40 24 60 	br	#0x6024	
    5d34:	1f 42 e2 11 	mov	&0x11e2,r15	
    5d38:	3f b0 40 00 	bit	#64,	r15	;#0x0040
    5d3c:	02 20       	jnz	$+6      	;abs 0x5d42
    5d3e:	30 40 bc 5f 	br	#0x5fbc	
    5d42:	7f f0 bf ff 	and.b	#-65,	r15	;#0xffbf
    5d46:	7f 90 3f 00 	cmp.b	#63,	r15	;#0x003f
    5d4a:	02 24       	jz	$+6      	;abs 0x5d50
    5d4c:	30 40 24 60 	br	#0x6024	
    5d50:	1b 42 54 11 	mov	&0x1154,r11	
    5d54:	6e 4b       	mov.b	@r11,	r14	
    5d56:	c2 4e 90 11 	mov.b	r14,	&0x1190	
    5d5a:	1f 42 8e 11 	mov	&0x118e,r15	
    5d5e:	3f 90 05 00 	cmp	#5,	r15	;#0x0005
    5d62:	3a 24       	jz	$+118    	;abs 0x5dd8
    5d64:	3f 90 06 00 	cmp	#6,	r15	;#0x0006
    5d68:	87 24       	jz	$+272    	;abs 0x5e78
    5d6a:	2f 93       	cmp	#2,	r15	;r3 As==10
    5d6c:	02 24       	jz	$+6      	;abs 0x5d72
    5d6e:	30 40 ac 5f 	br	#0x5fac	
    5d72:	b2 40 05 00 8e 11 	mov	#5,	&0x118e	;#0x0005
    5d78:	5d 42 74 11 	mov.b	&0x1174,r13	
    5d7c:	4d 9e       	cmp.b	r14,	r13	
    5d7e:	28 24       	jz	$+82     	;abs 0x5dd0
    5d80:	27 28       	jnc	$+80     	;abs 0x5dd0
    5d82:	f2 b2 20 00 	bit.b	#8,	&0x0020	;r2 As==11
    5d86:	08 20       	jnz	$+18     	;abs 0x5d98
    5d88:	d2 b3 20 00 	bit.b	#1,	&0x0020	;r3 As==01
    5d8c:	05 20       	jnz	$+12     	;abs 0x5d98
    5d8e:	4f 4e       	mov.b	r14,	r15	
    5d90:	7f e3       	xor.b	#-1,	r15	;r3 As==11
    5d92:	4f 5d       	add.b	r13,	r15	
    5d94:	c2 4f 74 11 	mov.b	r15,	&0x1174	
    5d98:	7e 90 2a 00 	cmp.b	#42,	r14	;#0x002a
    5d9c:	19 2c       	jc	$+52     	;abs 0x5dd0
    5d9e:	4e 93       	tst.b	r14		
    5da0:	0e 24       	jz	$+30     	;abs 0x5dbe
    5da2:	0f 4b       	mov	r11,	r15	
    5da4:	1f 53       	inc	r15		
    5da6:	7e 92       	cmp.b	#8,	r14	;r2 As==11
    5da8:	03 28       	jnc	$+8      	;abs 0x5db0
    5daa:	7e 40 07 00 	mov.b	#7,	r14	;#0x0007
    5dae:	03 3c       	jmp	$+8      	;abs 0x5db6
    5db0:	b2 40 06 00 8e 11 	mov	#6,	&0x118e	;#0x0006
    5db6:	b0 12 c2 54 	call	#0x54c2	
    5dba:	30 40 24 60 	br	#0x6024	
    5dbe:	c2 43 b6 11 	mov.b	#0,	&0x11b6	;r3 As==00
    5dc2:	b0 12 9a 4b 	call	#0x4b9a	
    5dc6:	6f 42       	mov.b	#4,	r15	;r2 As==10
    5dc8:	b0 12 64 53 	call	#0x5364	
    5dcc:	30 40 a6 5f 	br	#0x5fa6	
    5dd0:	b0 12 f4 5c 	call	#0x5cf4	
    5dd4:	30 40 24 60 	br	#0x6024	
    5dd8:	b2 40 06 00 8e 11 	mov	#6,	&0x118e	;#0x0006
    5dde:	c2 93 be 11 	tst.b	&0x11be	
    5de2:	43 24       	jz	$+136    	;abs 0x5e6a
    5de4:	c2 93 9a 12 	tst.b	&0x129a	
    5de8:	40 20       	jnz	$+130    	;abs 0x5e6a
    5dea:	5f 4b 02 00 	mov.b	2(r11),	r15	;0x0002(r11)
    5dee:	8f 10       	swpb	r15		
    5df0:	5e 4b 01 00 	mov.b	1(r11),	r14	;0x0001(r11)
    5df4:	0f de       	bis	r14,	r15	
    5df6:	3f f0 20 00 	and	#32,	r15	;#0x0020
    5dfa:	37 24       	jz	$+112    	;abs 0x5e6a
    5dfc:	5f 4b 07 00 	mov.b	7(r11),	r15	;0x0007(r11)
    5e00:	8f 10       	swpb	r15		
    5e02:	5e 4b 06 00 	mov.b	6(r11),	r14	;0x0006(r11)
    5e06:	0f de       	bis	r14,	r15	
    5e08:	0e 42       	mov	r2,	r14	
    5e0a:	32 c2       	dint			
    5e0c:	03 43       	nop			
    5e0e:	1d 42 de 11 	mov	&0x11de,r13	
    5e12:	3e f2       	and	#8,	r14	;r2 As==11
    5e14:	01 24       	jz	$+4      	;abs 0x5e18
    5e16:	32 d2       	eint			
    5e18:	0f 9d       	cmp	r13,	r15	
    5e1a:	08 24       	jz	$+18     	;abs 0x5e2c
    5e1c:	5f 4b 07 00 	mov.b	7(r11),	r15	;0x0007(r11)
    5e20:	8f 10       	swpb	r15		
    5e22:	5e 4b 06 00 	mov.b	6(r11),	r14	;0x0006(r11)
    5e26:	0f de       	bis	r14,	r15	
    5e28:	3f 93       	cmp	#-1,	r15	;r3 As==11
    5e2a:	1f 20       	jnz	$+64     	;abs 0x5e6a
    5e2c:	5f 4b 02 00 	mov.b	2(r11),	r15	;0x0002(r11)
    5e30:	8f 10       	swpb	r15		
    5e32:	5e 4b 01 00 	mov.b	1(r11),	r14	;0x0001(r11)
    5e36:	0f de       	bis	r14,	r15	
    5e38:	3f f0 07 00 	and	#7,	r15	;#0x0007
    5e3c:	1f 93       	cmp	#1,	r15	;r3 As==01
    5e3e:	15 20       	jnz	$+44     	;abs 0x5e6a
    5e40:	b0 12 9a 4b 	call	#0x4b9a	
    5e44:	b0 12 62 4b 	call	#0x4b62	
    5e48:	7f 40 0a 00 	mov.b	#10,	r15	;#0x000a
    5e4c:	b0 12 14 4b 	call	#0x4b14	
    5e50:	b0 12 9a 4b 	call	#0x4b9a	
    5e54:	b0 12 62 4b 	call	#0x4b62	
    5e58:	5e 42 90 11 	mov.b	&0x1190,r14	
    5e5c:	7e 50 f9 ff 	add.b	#-7,	r14	;#0xfff9
    5e60:	0f 4b       	mov	r11,	r15	
    5e62:	3f 52       	add	#8,	r15	;r2 As==11
    5e64:	b0 12 46 54 	call	#0x5446	
    5e68:	dd 3c       	jmp	$+444    	;abs 0x6024
    5e6a:	5e 42 90 11 	mov.b	&0x1190,r14	
    5e6e:	7e 50 f9 ff 	add.b	#-7,	r14	;#0xfff9
    5e72:	0f 4b       	mov	r11,	r15	
    5e74:	3f 52       	add	#8,	r15	;r2 As==11
    5e76:	9f 3f       	jmp	$-192    	;abs 0x5db6
    5e78:	b0 12 9a 4b 	call	#0x4b9a	
    5e7c:	c2 93 95 11 	tst.b	&0x1195	
    5e80:	03 20       	jnz	$+8      	;abs 0x5e88
    5e82:	6f 42       	mov.b	#4,	r15	;r2 As==10
    5e84:	b0 12 64 53 	call	#0x5364	
    5e88:	c2 93 95 11 	tst.b	&0x1195	
    5e8c:	03 24       	jz	$+8      	;abs 0x5e94
    5e8e:	f2 b2 20 00 	bit.b	#8,	&0x0020	;r2 As==11
    5e92:	0b 20       	jnz	$+24     	;abs 0x5eaa
    5e94:	d2 b3 20 00 	bit.b	#1,	&0x0020	;r3 As==01
    5e98:	08 24       	jz	$+18     	;abs 0x5eaa
    5e9a:	5a 42 e8 17 	mov.b	&0x17e8,r10	
    5e9e:	4a 93       	tst.b	r10		
    5ea0:	04 24       	jz	$+10     	;abs 0x5eaa
    5ea2:	f2 90 0b 00 90 11 	cmp.b	#11,	&0x1190	;#0x000b
    5ea8:	0e 2c       	jc	$+30     	;abs 0x5ec6
    5eaa:	1f 42 54 11 	mov	&0x1154,r15	
    5eae:	cf 43 33 00 	mov.b	#0,	51(r15)	;r3 As==00, 0x0033(r15)
    5eb2:	cf 43 2b 00 	mov.b	#0,	43(r15)	;r3 As==00, 0x002b(r15)
    5eb6:	cf 43 2a 00 	mov.b	#0,	42(r15)	;r3 As==00, 0x002a(r15)
    5eba:	cf 43 29 00 	mov.b	#0,	41(r15)	;r3 As==00, 0x0029(r15)
    5ebe:	ff 40 80 ff 28 00 	mov.b	#-128,	40(r15)	;#0xff80, 0x0028(r15)
    5ec4:	37 3c       	jmp	$+112    	;abs 0x5f34
    5ec6:	59 42 ee 17 	mov.b	&0x17ee,r9	
    5eca:	5a 93       	cmp.b	#1,	r10	;r3 As==01
    5ecc:	19 20       	jnz	$+52     	;abs 0x5f00
    5ece:	0f 49       	mov	r9,	r15	
    5ed0:	0f 5f       	rla	r15		
    5ed2:	0f 5f       	rla	r15		
    5ed4:	3f 50 94 17 	add	#6036,	r15	;#0x1794
    5ed8:	28 4f       	mov	@r15,	r8	
    5eda:	1c 4f 02 00 	mov	2(r15),	r12	;0x0002(r15)
    5ede:	1d 42 54 11 	mov	&0x1154,r13	
    5ee2:	cd 48 2b 00 	mov.b	r8,	43(r13)	;0x002b(r13)
    5ee6:	0e 4c       	mov	r12,	r14	
    5ee8:	0f 48       	mov	r8,	r15	
    5eea:	8f 10       	swpb	r15		
    5eec:	8e 10       	swpb	r14		
    5eee:	4f ee       	xor.b	r14,	r15	
    5ef0:	0f ee       	xor	r14,	r15	
    5ef2:	cd 4f 2a 00 	mov.b	r15,	42(r13)	;0x002a(r13)
    5ef6:	cd 4c 29 00 	mov.b	r12,	41(r13)	;0x0029(r13)
    5efa:	8c 10       	swpb	r12		
    5efc:	cd 4c 28 00 	mov.b	r12,	40(r13)	;0x0028(r13)
    5f00:	19 53       	inc	r9		
    5f02:	79 f0 07 00 	and.b	#7,	r9	;#0x0007
    5f06:	c2 49 ee 17 	mov.b	r9,	&0x17ee	
    5f0a:	7a 53       	add.b	#-1,	r10	;r3 As==11
    5f0c:	c2 4a e8 17 	mov.b	r10,	&0x17e8	
    5f10:	11 24       	jz	$+36     	;abs 0x5f34
    5f12:	1f 42 54 11 	mov	&0x1154,r15	
    5f16:	cf 43 33 00 	mov.b	#0,	51(r15)	;r3 As==00, 0x0033(r15)
    5f1a:	cf 43 2b 00 	mov.b	#0,	43(r15)	;r3 As==00, 0x002b(r15)
    5f1e:	cf 43 2a 00 	mov.b	#0,	42(r15)	;r3 As==00, 0x002a(r15)
    5f22:	cf 43 29 00 	mov.b	#0,	41(r15)	;r3 As==00, 0x0029(r15)
    5f26:	ff 40 80 ff 28 00 	mov.b	#-128,	40(r15)	;#0xff80, 0x0028(r15)
    5f2c:	c2 43 ee 17 	mov.b	#0,	&0x17ee	;r3 As==00
    5f30:	c2 43 e8 17 	mov.b	#0,	&0x17e8	;r3 As==00
    5f34:	5f 42 90 11 	mov.b	&0x1190,r15	
    5f38:	0f 5b       	add	r11,	r15	
    5f3a:	cf 93 00 00 	tst.b	0(r15)		;0x0000(r15)
    5f3e:	33 34       	jge	$+104    	;abs 0x5fa6
    5f40:	07 93       	tst	r7		
    5f42:	31 24       	jz	$+100    	;abs 0x5fa6
    5f44:	5f 4b 02 00 	mov.b	2(r11),	r15	;0x0002(r11)
    5f48:	8f 10       	swpb	r15		
    5f4a:	5f db 01 00 	bis.b	1(r11),	r15	;0x0001(r11)
    5f4e:	7f f0 07 00 	and.b	#7,	r15	;#0x0007
    5f52:	1d 42 54 11 	mov	&0x1154,r13	
    5f56:	6f 93       	cmp.b	#2,	r15	;r3 As==10
    5f58:	1f 20       	jnz	$+64     	;abs 0x5f98
    5f5a:	1f 42 c2 11 	mov	&0x11c2,r15	
    5f5e:	0f 93       	tst	r15		
    5f60:	22 24       	jz	$+70     	;abs 0x5fa6
    5f62:	b2 90 07 00 3e 11 	cmp	#7,	&0x113e	;#0x0007
    5f68:	1e 20       	jnz	$+62     	;abs 0x5fa6
    5f6a:	df 9d 03 00 03 00 	cmp.b	3(r13),	3(r15)	;0x0003(r13), 0x0003(r15)
    5f70:	1a 20       	jnz	$+54     	;abs 0x5fa6
    5f72:	b2 f0 ef ff 82 01 	and	#-17,	&0x0182	;#0xffef
    5f78:	6e 4d       	mov.b	@r13,	r14	
    5f7a:	df 43 32 00 	mov.b	#1,	50(r15)	;r3 As==01, 0x0032(r15)
    5f7e:	0e 5d       	add	r13,	r14	
    5f80:	df 4e ff ff 2e 00 	mov.b	-1(r14),46(r15)	;0xffff(r14), 0x002e(r15)
    5f86:	6e 4e       	mov.b	@r14,	r14	
    5f88:	7e f0 7f 00 	and.b	#127,	r14	;#0x007f
    5f8c:	cf 4e 2f 00 	mov.b	r14,	47(r15)	;0x002f(r15)
    5f90:	0f 43       	clr	r15		
    5f92:	b0 12 04 55 	call	#0x5504	
    5f96:	07 3c       	jmp	$+16     	;abs 0x5fa6
    5f98:	5f 93       	cmp.b	#1,	r15	;r3 As==01
    5f9a:	05 20       	jnz	$+12     	;abs 0x5fa6
    5f9c:	7f 40 0a 00 	mov.b	#10,	r15	;#0x000a
    5fa0:	b0 12 9c 49 	call	#0x499c	
    5fa4:	3f 3c       	jmp	$+128    	;abs 0x6024
    5fa6:	b0 12 a4 5c 	call	#0x5ca4	
    5faa:	3c 3c       	jmp	$+122    	;abs 0x6024
    5fac:	c2 43 b6 11 	mov.b	#0,	&0x11b6	;r3 As==00
    5fb0:	b0 12 9a 4b 	call	#0x4b9a	
    5fb4:	6f 42       	mov.b	#4,	r15	;r2 As==10
    5fb6:	b0 12 64 53 	call	#0x5364	
    5fba:	34 3c       	jmp	$+106    	;abs 0x6024
    5fbc:	7f 90 3e 00 	cmp.b	#62,	r15	;#0x003e
    5fc0:	31 20       	jnz	$+100    	;abs 0x6024
    5fc2:	b0 12 9a 4b 	call	#0x4b9a	
    5fc6:	b2 92 3e 11 	cmp	#8,	&0x113e	;r2 As==11
    5fca:	11 20       	jnz	$+36     	;abs 0x5fee
    5fcc:	b0 12 62 4b 	call	#0x4b62	
    5fd0:	7f 40 09 00 	mov.b	#9,	r15	;#0x0009
    5fd4:	b0 12 14 4b 	call	#0x4b14	
    5fd8:	b0 12 9a 4b 	call	#0x4b9a	
    5fdc:	b0 12 1c 54 	call	#0x541c	
    5fe0:	92 43 3e 11 	mov	#1,	&0x113e	;r3 As==01
    5fe4:	3f 40 03 00 	mov	#3,	r15	;#0x0003
    5fe8:	b0 12 ec 54 	call	#0x54ec	
    5fec:	1b 3c       	jmp	$+56     	;abs 0x6024
    5fee:	c2 93 10 18 	tst.b	&0x1810	
    5ff2:	05 20       	jnz	$+12     	;abs 0x5ffe
    5ff4:	a2 42 3e 11 	mov	#4,	&0x113e	;r2 As==10
    5ff8:	b0 12 1e 55 	call	#0x551e	
    5ffc:	13 3c       	jmp	$+40     	;abs 0x6024
    5ffe:	b0 12 1c 54 	call	#0x541c	
    6002:	b2 40 03 00 3e 11 	mov	#3,	&0x113e	;#0x0003
    6008:	b0 12 28 46 	call	#0x4628	
    600c:	3e 40 36 01 	mov	#310,	r14	;#0x0136
    6010:	b0 12 74 77 	call	#0x7774	
    6014:	0e 4f       	mov	r15,	r14	
    6016:	3e 50 0b 00 	add	#11,	r14	;#0x000b
    601a:	82 4e 70 11 	mov	r14,	&0x1170	
    601e:	0f 43       	clr	r15		
    6020:	b0 12 d4 4c 	call	#0x4cd4	
    6024:	37 41       	pop	r7		
    6026:	38 41       	pop	r8		
    6028:	39 41       	pop	r9		
    602a:	3a 41       	pop	r10		
    602c:	3b 41       	pop	r11		
    602e:	30 41       	ret			

00006030 <Msp430TimerP__1__Event__fired>:
    6030:	0b 12       	push	r11		
    6032:	0a 12       	push	r10		
    6034:	09 12       	push	r9		
    6036:	08 12       	push	r8		
    6038:	07 12       	push	r7		
    603a:	06 12       	push	r6		
    603c:	05 12       	push	r5		
    603e:	7f 92       	cmp.b	#8,	r15	;r2 As==11
    6040:	02 28       	jnc	$+6      	;abs 0x6046
    6042:	30 40 dc 63 	br	#0x63dc	
    6046:	4f 4f       	mov.b	r15,	r15	
    6048:	0f 5f       	rla	r15		
    604a:	10 4f 4c 79 	br	31052(r15)	;0x794c(r15)
    604e:	1f 42 82 01 	mov	&0x0182,r15	
    6052:	8f 10       	swpb	r15		
    6054:	5f f3       	and.b	#1,	r15	;r3 As==01
    6056:	04 24       	jz	$+10     	;abs 0x6060
    6058:	1f 42 92 01 	mov	&0x0192,r15	
    605c:	30 40 dc 63 	br	#0x63dc	
    6060:	b2 f0 ef ff 82 01 	and	#-17,	&0x0182	;#0xffef
    6066:	82 93 d4 11 	tst	&0x11d4	
    606a:	49 20       	jnz	$+148    	;abs 0x60fe
    606c:	82 93 d6 11 	tst	&0x11d6	
    6070:	46 20       	jnz	$+142    	;abs 0x60fe
    6072:	1f 42 3e 11 	mov	&0x113e,r15	
    6076:	3f 50 fd ff 	add	#-3,	r15	;#0xfffd
    607a:	3f 90 06 00 	cmp	#6,	r15	;#0x0006
    607e:	2f 2c       	jc	$+96     	;abs 0x60de
    6080:	0f 5f       	rla	r15		
    6082:	10 4f 5c 79 	br	31068(r15)	;0x795c(r15)
    6086:	f2 b0 10 00 20 00 	bit.b	#16,	&0x0020	;#0x0010
    608c:	08 24       	jz	$+18     	;abs 0x609e
    608e:	a2 42 3e 11 	mov	#4,	&0x113e	;r2 As==10
    6092:	3e 40 07 00 	mov	#7,	r14	;#0x0007
    6096:	0f 43       	clr	r15		
    6098:	b0 12 d4 4c 	call	#0x4cd4	
    609c:	20 3c       	jmp	$+66     	;abs 0x60de
    609e:	b0 12 0a 4d 	call	#0x4d0a	
    60a2:	1d 3c       	jmp	$+60     	;abs 0x60de
    60a4:	7f 40 03 00 	mov.b	#3,	r15	;#0x0003
    60a8:	b0 12 04 5c 	call	#0x5c04	
    60ac:	0f 93       	tst	r15		
    60ae:	05 24       	jz	$+12     	;abs 0x60ba
    60b0:	7f 40 03 00 	mov.b	#3,	r15	;#0x0003
    60b4:	b0 12 da 5a 	call	#0x5ada	
    60b8:	12 3c       	jmp	$+38     	;abs 0x60de
    60ba:	b0 12 1e 55 	call	#0x551e	
    60be:	0f 3c       	jmp	$+32     	;abs 0x60de
    60c0:	0f 43       	clr	r15		
    60c2:	0b 3c       	jmp	$+24     	;abs 0x60da
    60c4:	7f 40 09 00 	mov.b	#9,	r15	;#0x0009
    60c8:	b0 12 14 4b 	call	#0x4b14	
    60cc:	5f 43       	mov.b	#1,	r15	;r3 As==01
    60ce:	b0 12 a2 47 	call	#0x47a2	
    60d2:	b0 12 1c 54 	call	#0x541c	
    60d6:	3f 40 07 00 	mov	#7,	r15	;#0x0007
    60da:	b0 12 04 55 	call	#0x5504	
    60de:	92 93 4e 11 	cmp	#1,	&0x114e	;r3 As==01
    60e2:	02 24       	jz	$+6      	;abs 0x60e8
    60e4:	30 40 dc 63 	br	#0x63dc	
    60e8:	a2 43 4e 11 	mov	#2,	&0x114e	;r3 As==10
    60ec:	b0 12 38 4d 	call	#0x4d38	
    60f0:	b0 12 4c 4d 	call	#0x4d4c	
    60f4:	4f 43       	clr.b	r15		
    60f6:	b0 12 da 5a 	call	#0x5ada	
    60fa:	30 40 dc 63 	br	#0x63dc	
    60fe:	b0 12 f0 4b 	call	#0x4bf0	
    6102:	30 40 dc 63 	br	#0x63dc	
    6106:	1f 42 84 01 	mov	&0x0184,r15	
    610a:	8f 10       	swpb	r15		
    610c:	5f f3       	and.b	#1,	r15	;r3 As==01
    610e:	02 20       	jnz	$+6      	;abs 0x6114
    6110:	30 40 dc 63 	br	#0x63dc	
    6114:	18 42 94 01 	mov	&0x0194,r8	
    6118:	b2 f0 fe ff 84 01 	and	#-2,	&0x0184	;#0xfffe
    611e:	b2 f0 fd ff 84 01 	and	#-3,	&0x0184	;#0xfffd
    6124:	b0 12 ac 4b 	call	#0x4bac	
    6128:	0c 4e       	mov	r14,	r12	
    612a:	0c 88       	sub	r8,	r12	
    612c:	0d 43       	clr	r13		
    612e:	06 4e       	mov	r14,	r6	
    6130:	07 4f       	mov	r15,	r7	
    6132:	06 8c       	sub	r12,	r6	
    6134:	07 7d       	subc	r13,	r7	
    6136:	1f 42 3e 11 	mov	&0x113e,r15	
    613a:	3f 90 05 00 	cmp	#5,	r15	;#0x0005
    613e:	04 24       	jz	$+10     	;abs 0x6148
    6140:	3f 90 06 00 	cmp	#6,	r15	;#0x0006
    6144:	b8 20       	jnz	$+370    	;abs 0x62b6
    6146:	98 3c       	jmp	$+306    	;abs 0x6278
    6148:	b2 40 06 00 3e 11 	mov	#6,	&0x113e	;#0x0006
    614e:	d2 43 b3 11 	mov.b	#1,	&0x11b3	;r3 As==01
    6152:	c2 43 3c 11 	mov.b	#0,	&0x113c	;r3 As==00
    6156:	6f 43       	mov.b	#2,	r15	;r3 As==10
    6158:	b0 12 a2 47 	call	#0x47a2	
    615c:	1c 42 c2 11 	mov	&0x11c2,r12	
    6160:	cc 46 2b 00 	mov.b	r6,	43(r12)	;0x002b(r12)
    6164:	0f 46       	mov	r6,	r15	
    6166:	0d 47       	mov	r7,	r13	
    6168:	8f 10       	swpb	r15		
    616a:	8d 10       	swpb	r13		
    616c:	4f ed       	xor.b	r13,	r15	
    616e:	0f ed       	xor	r13,	r15	
    6170:	cc 4f 2a 00 	mov.b	r15,	42(r12)	;0x002a(r12)
    6174:	0f 47       	mov	r7,	r15	
    6176:	cc 47 29 00 	mov.b	r7,	41(r12)	;0x0029(r12)
    617a:	8f 10       	swpb	r15		
    617c:	cc 4f 28 00 	mov.b	r15,	40(r12)	;0x0028(r12)
    6180:	cc 93 33 00 	tst.b	51(r12)	;0x0033(r12)
    6184:	64 24       	jz	$+202    	;abs 0x624e
    6186:	65 4c       	mov.b	@r12,	r5	
    6188:	75 50 fb ff 	add.b	#-5,	r5	;#0xfffb
    618c:	49 45       	mov.b	r5,	r9	
    618e:	09 5c       	add	r12,	r9	
    6190:	6d 49       	mov.b	@r9,	r13	
    6192:	0a 43       	clr	r10		
    6194:	0b 43       	clr	r11		
    6196:	0b 4d       	mov	r13,	r11	
    6198:	8b 10       	swpb	r11		
    619a:	0c 43       	clr	r12		
    619c:	0d 43       	clr	r13		
    619e:	5d 49 01 00 	mov.b	1(r9),	r13	;0x0001(r9)
    61a2:	0c da       	bis	r10,	r12	
    61a4:	0d db       	bis	r11,	r13	
    61a6:	5a 49 03 00 	mov.b	3(r9),	r10	;0x0003(r9)
    61aa:	0b 43       	clr	r11		
    61ac:	0c da       	bis	r10,	r12	
    61ae:	0d db       	bis	r11,	r13	
    61b0:	5a 49 02 00 	mov.b	2(r9),	r10	;0x0002(r9)
    61b4:	4b ea       	xor.b	r10,	r11	
    61b6:	0b ea       	xor	r10,	r11	
    61b8:	8b 10       	swpb	r11		
    61ba:	4a 4a       	mov.b	r10,	r10	
    61bc:	8a 10       	swpb	r10		
    61be:	0c da       	bis	r10,	r12	
    61c0:	0d db       	bis	r11,	r13	
    61c2:	0c 86       	sub	r6,	r12	
    61c4:	0d 77       	subc	r7,	r13	
    61c6:	c9 4c 03 00 	mov.b	r12,	3(r9)	;0x0003(r9)
    61ca:	0a 4d       	mov	r13,	r10	
    61cc:	8c 10       	swpb	r12		
    61ce:	8a 10       	swpb	r10		
    61d0:	4c ea       	xor.b	r10,	r12	
    61d2:	0c ea       	xor	r10,	r12	
    61d4:	c9 4c 02 00 	mov.b	r12,	2(r9)	;0x0002(r9)
    61d8:	0f 4d       	mov	r13,	r15	
    61da:	c9 4d 01 00 	mov.b	r13,	1(r9)	;0x0001(r9)
    61de:	8f 10       	swpb	r15		
    61e0:	c9 4f 00 00 	mov.b	r15,	0(r9)	;0x0000(r9)
    61e4:	b0 12 62 4b 	call	#0x4b62	
    61e8:	6c 42       	mov.b	#4,	r12	;r2 As==10
    61ea:	0d 49       	mov	r9,	r13	
    61ec:	4e 45       	mov.b	r5,	r14	
    61ee:	0f 43       	clr	r15		
    61f0:	b0 12 10 57 	call	#0x5710	
    61f4:	b0 12 9a 4b 	call	#0x4b9a	
    61f8:	6f 49       	mov.b	@r9,	r15	
    61fa:	0c 43       	clr	r12		
    61fc:	0d 43       	clr	r13		
    61fe:	0d 4f       	mov	r15,	r13	
    6200:	8d 10       	swpb	r13		
    6202:	0a 43       	clr	r10		
    6204:	0b 43       	clr	r11		
    6206:	5b 49 01 00 	mov.b	1(r9),	r11	;0x0001(r9)
    620a:	0c da       	bis	r10,	r12	
    620c:	0d db       	bis	r11,	r13	
    620e:	5a 49 03 00 	mov.b	3(r9),	r10	;0x0003(r9)
    6212:	0b 43       	clr	r11		
    6214:	0c da       	bis	r10,	r12	
    6216:	0d db       	bis	r11,	r13	
    6218:	5a 49 02 00 	mov.b	2(r9),	r10	;0x0002(r9)
    621c:	4b ea       	xor.b	r10,	r11	
    621e:	0b ea       	xor	r10,	r11	
    6220:	8b 10       	swpb	r11		
    6222:	4a 4a       	mov.b	r10,	r10	
    6224:	8a 10       	swpb	r10		
    6226:	0c da       	bis	r10,	r12	
    6228:	0d db       	bis	r11,	r13	
    622a:	0c 56       	add	r6,	r12	
    622c:	0d 67       	addc	r7,	r13	
    622e:	c9 4c 03 00 	mov.b	r12,	3(r9)	;0x0003(r9)
    6232:	0f 4c       	mov	r12,	r15	
    6234:	0c 4d       	mov	r13,	r12	
    6236:	8f 10       	swpb	r15		
    6238:	8c 10       	swpb	r12		
    623a:	4f ec       	xor.b	r12,	r15	
    623c:	0f ec       	xor	r12,	r15	
    623e:	c9 4f 02 00 	mov.b	r15,	2(r9)	;0x0002(r9)
    6242:	0f 4d       	mov	r13,	r15	
    6244:	c9 4d 01 00 	mov.b	r13,	1(r9)	;0x0001(r9)
    6248:	8f 10       	swpb	r15		
    624a:	c9 4f 00 00 	mov.b	r15,	0(r9)	;0x0000(r9)
    624e:	1d 42 c2 11 	mov	&0x11c2,r13	
    6252:	5f 4d 02 00 	mov.b	2(r13),	r15	;0x0002(r13)
    6256:	8f 10       	swpb	r15		
    6258:	5d 4d 01 00 	mov.b	1(r13),	r13	;0x0001(r13)
    625c:	0f dd       	bis	r13,	r15	
    625e:	3f f0 20 00 	and	#32,	r15	;#0x0020
    6262:	02 24       	jz	$+6      	;abs 0x6268
    6264:	d2 43 76 11 	mov.b	#1,	&0x1176	;r3 As==01
    6268:	b0 12 1c 54 	call	#0x541c	
    626c:	b2 f0 ef ff 82 01 	and	#-17,	&0x0182	;#0xffef
    6272:	e2 b3 1c 00 	bit.b	#2,	&0x001c	;r3 As==10
    6276:	b2 20       	jnz	$+358    	;abs 0x63dc
    6278:	c2 43 b3 11 	mov.b	#0,	&0x11b3	;r3 As==00
    627c:	5f 43       	mov.b	#1,	r15	;r3 As==01
    627e:	b0 12 a2 47 	call	#0x47a2	
    6282:	1d 42 c2 11 	mov	&0x11c2,r13	
    6286:	5f 4d 02 00 	mov.b	2(r13),	r15	;0x0002(r13)
    628a:	8f 10       	swpb	r15		
    628c:	5d 4d 01 00 	mov.b	1(r13),	r13	;0x0001(r13)
    6290:	0f dd       	bis	r13,	r15	
    6292:	3f f0 20 00 	and	#32,	r15	;#0x0020
    6296:	09 24       	jz	$+20     	;abs 0x62aa
    6298:	b2 40 07 00 3e 11 	mov	#7,	&0x113e	;#0x0007
    629e:	3e 40 00 01 	mov	#256,	r14	;#0x0100
    62a2:	0f 43       	clr	r15		
    62a4:	b0 12 d4 4c 	call	#0x4cd4	
    62a8:	03 3c       	jmp	$+8      	;abs 0x62b0
    62aa:	0f 43       	clr	r15		
    62ac:	b0 12 04 55 	call	#0x5504	
    62b0:	e2 b3 1c 00 	bit.b	#2,	&0x001c	;r3 As==10
    62b4:	93 24       	jz	$+296    	;abs 0x63dc
    62b6:	c2 93 3c 11 	tst.b	&0x113c	
    62ba:	27 20       	jnz	$+80     	;abs 0x630a
    62bc:	c2 93 b3 11 	tst.b	&0x11b3	
    62c0:	24 20       	jnz	$+74     	;abs 0x630a
    62c2:	d2 43 b3 11 	mov.b	#1,	&0x11b3	;r3 As==01
    62c6:	6f 43       	mov.b	#2,	r15	;r3 As==10
    62c8:	b0 12 a2 47 	call	#0x47a2	
    62cc:	5c 42 1c 00 	mov.b	&0x001c,r12	
    62d0:	5d 42 e8 17 	mov.b	&0x17e8,r13	
    62d4:	7d 92       	cmp.b	#8,	r13	;r2 As==11
    62d6:	0e 2c       	jc	$+30     	;abs 0x62f4
    62d8:	4f 4d       	mov.b	r13,	r15	
    62da:	5f 52 ee 17 	add.b	&0x17ee,r15	
    62de:	3f f0 07 00 	and	#7,	r15	;#0x0007
    62e2:	0f 5f       	rla	r15		
    62e4:	0f 5f       	rla	r15		
    62e6:	8f 46 94 17 	mov	r6,	6036(r15);0x1794(r15)
    62ea:	8f 47 96 17 	mov	r7,	6038(r15);0x1796(r15)
    62ee:	5d 53       	inc.b	r13		
    62f0:	c2 4d e8 17 	mov.b	r13,	&0x17e8	
    62f4:	d2 43 3c 11 	mov.b	#1,	&0x113c	;r3 As==01
    62f8:	82 48 e4 11 	mov	r8,	&0x11e4	
    62fc:	e2 b3 1c 00 	bit.b	#2,	&0x001c	;r3 As==10
    6300:	6d 20       	jnz	$+220    	;abs 0x63dc
    6302:	4e 4c       	mov.b	r12,	r14	
    6304:	6e f3       	and.b	#2,	r14	;r3 As==10
    6306:	5a 43       	mov.b	#1,	r10	;r3 As==01
    6308:	01 20       	jnz	$+4      	;abs 0x630c
    630a:	4a 43       	clr.b	r10		
    630c:	d2 93 b3 11 	cmp.b	#1,	&0x11b3	;r3 As==01
    6310:	65 20       	jnz	$+204    	;abs 0x63dc
    6312:	c2 43 b3 11 	mov.b	#0,	&0x11b3	;r3 As==00
    6316:	5f 43       	mov.b	#1,	r15	;r3 As==01
    6318:	b0 12 a2 47 	call	#0x47a2	
    631c:	c2 43 3c 11 	mov.b	#0,	&0x113c	;r3 As==00
    6320:	4a 93       	tst.b	r10		
    6322:	5c 20       	jnz	$+186    	;abs 0x63dc
    6324:	0f 48       	mov	r8,	r15	
    6326:	1f 82 e4 11 	sub	&0x11e4,r15	
    632a:	3f 90 0a 00 	cmp	#10,	r15	;#0x000a
    632e:	56 2c       	jc	$+174    	;abs 0x63dc
    6330:	5f 42 e8 17 	mov.b	&0x17e8,r15	
    6334:	4f 93       	tst.b	r15		
    6336:	03 24       	jz	$+8      	;abs 0x633e
    6338:	7f 53       	add.b	#-1,	r15	;r3 As==11
    633a:	c2 4f e8 17 	mov.b	r15,	&0x17e8	
    633e:	1f 42 c2 11 	mov	&0x11c2,r15	
    6342:	0f 93       	tst	r15		
    6344:	4b 24       	jz	$+152    	;abs 0x63dc
    6346:	cf 43 33 00 	mov.b	#0,	51(r15)	;r3 As==00, 0x0033(r15)
    634a:	cf 43 2b 00 	mov.b	#0,	43(r15)	;r3 As==00, 0x002b(r15)
    634e:	cf 43 2a 00 	mov.b	#0,	42(r15)	;r3 As==00, 0x002a(r15)
    6352:	cf 43 29 00 	mov.b	#0,	41(r15)	;r3 As==00, 0x0029(r15)
    6356:	ff 40 80 ff 28 00 	mov.b	#-128,	40(r15)	;#0xff80, 0x0028(r15)
    635c:	3f 3c       	jmp	$+128    	;abs 0x63dc
    635e:	1f 42 86 01 	mov	&0x0186,r15	
    6362:	8f 10       	swpb	r15		
    6364:	5f f3       	and.b	#1,	r15	;r3 As==01
    6366:	03 24       	jz	$+8      	;abs 0x636e
    6368:	1f 42 96 01 	mov	&0x0196,r15	
    636c:	37 3c       	jmp	$+112    	;abs 0x63dc
    636e:	b2 f0 ef ff 86 01 	and	#-17,	&0x0186	;#0xffef
    6374:	82 93 96 11 	tst	&0x1196	
    6378:	08 20       	jnz	$+18     	;abs 0x638a
    637a:	82 93 98 11 	tst	&0x1198	
    637e:	05 20       	jnz	$+12     	;abs 0x638a
    6380:	7f 40 0b 00 	mov.b	#11,	r15	;#0x000b
    6384:	b0 12 9c 49 	call	#0x499c	
    6388:	29 3c       	jmp	$+84     	;abs 0x63dc
    638a:	b0 12 ce 4d 	call	#0x4dce	
    638e:	26 3c       	jmp	$+78     	;abs 0x63dc
    6390:	1f 42 88 01 	mov	&0x0188,r15	
    6394:	8f 10       	swpb	r15		
    6396:	5f f3       	and.b	#1,	r15	;r3 As==01
    6398:	21 24       	jz	$+68     	;abs 0x63dc
    639a:	1f 42 98 01 	mov	&0x0198,r15	
    639e:	1e 3c       	jmp	$+62     	;abs 0x63dc
    63a0:	1f 42 8a 01 	mov	&0x018a,r15	
    63a4:	8f 10       	swpb	r15		
    63a6:	5f f3       	and.b	#1,	r15	;r3 As==01
    63a8:	19 24       	jz	$+52     	;abs 0x63dc
    63aa:	1f 42 9a 01 	mov	&0x019a,r15	
    63ae:	16 3c       	jmp	$+46     	;abs 0x63dc
    63b0:	1f 42 8c 01 	mov	&0x018c,r15	
    63b4:	8f 10       	swpb	r15		
    63b6:	5f f3       	and.b	#1,	r15	;r3 As==01
    63b8:	11 24       	jz	$+36     	;abs 0x63dc
    63ba:	1f 42 9c 01 	mov	&0x019c,r15	
    63be:	0e 3c       	jmp	$+30     	;abs 0x63dc
    63c0:	1f 42 8e 01 	mov	&0x018e,r15	
    63c4:	8f 10       	swpb	r15		
    63c6:	5f f3       	and.b	#1,	r15	;r3 As==01
    63c8:	09 24       	jz	$+20     	;abs 0x63dc
    63ca:	1f 42 9e 01 	mov	&0x019e,r15	
    63ce:	06 3c       	jmp	$+14     	;abs 0x63dc
    63d0:	92 53 cc 11 	inc	&0x11cc	
    63d4:	82 63 ce 11 	adc	&0x11ce	
    63d8:	92 53 10 12 	inc	&0x1210	
    63dc:	35 41       	pop	r5		
    63de:	36 41       	pop	r6		
    63e0:	37 41       	pop	r7		
    63e2:	38 41       	pop	r8		
    63e4:	39 41       	pop	r9		
    63e6:	3a 41       	pop	r10		
    63e8:	3b 41       	pop	r11		
    63ea:	30 41       	ret			

000063ec <CC2420TinyosNetworkP__ActiveSend__send.isra.155>:
    63ec:	0b 12       	push	r11		
    63ee:	0a 12       	push	r10		
    63f0:	0b 4f       	mov	r15,	r11	
    63f2:	0a 42       	mov	r2,	r10	
    63f4:	32 c2       	dint			
    63f6:	03 43       	nop			
    63f8:	b0 12 32 47 	call	#0x4732	
    63fc:	ff 40 3f 00 00 00 	mov.b	#63,	0(r15)	;#0x003f, 0x0000(r15)
    6402:	3a b2       	bit	#8,	r10	;r2 As==11
    6404:	01 24       	jz	$+4      	;abs 0x6408
    6406:	32 d2       	eint			
    6408:	82 43 f6 17 	mov	#0,	&0x17f6	;r3 As==00
    640c:	6f 43       	mov.b	#2,	r15	;r3 As==10
    640e:	b0 12 b4 5a 	call	#0x5ab4	
    6412:	0f 93       	tst	r15		
    6414:	6f 20       	jnz	$+224    	;abs 0x64f4
    6416:	5f 42 16 15 	mov.b	&0x1516,r15	
    641a:	4e 4f       	mov.b	r15,	r14	
    641c:	5e 53       	inc.b	r14		
    641e:	c2 4e 16 15 	mov.b	r14,	&0x1516	
    6422:	cb 4f 03 00 	mov.b	r15,	3(r11)	;0x0003(r11)
    6426:	0a 42       	mov	r2,	r10	
    6428:	3a f2       	and	#8,	r10	;r2 As==11
    642a:	32 c2       	dint			
    642c:	03 43       	nop			
    642e:	6f 43       	mov.b	#2,	r15	;r3 As==10
    6430:	b0 12 48 4b 	call	#0x4b48	
    6434:	4f 93       	tst.b	r15		
    6436:	04 20       	jnz	$+10     	;abs 0x6440
    6438:	0a 93       	tst	r10		
    643a:	58 24       	jz	$+178    	;abs 0x64ec
    643c:	32 d2       	eint			
    643e:	56 3c       	jmp	$+174    	;abs 0x64ec
    6440:	6f 42       	mov.b	#4,	r15	;r2 As==10
    6442:	b0 12 d8 4e 	call	#0x4ed8	
    6446:	82 4b ec 11 	mov	r11,	&0x11ec	
    644a:	0a 93       	tst	r10		
    644c:	01 24       	jz	$+4      	;abs 0x6450
    644e:	32 d2       	eint			
    6450:	5f 4b 02 00 	mov.b	2(r11),	r15	;0x0002(r11)
    6454:	8f 10       	swpb	r15		
    6456:	5e 4b 01 00 	mov.b	1(r11),	r14	;0x0001(r11)
    645a:	0f de       	bis	r14,	r15	
    645c:	3f f0 20 cc 	and	#-13280,r15	;#0xcc20
    6460:	4e 4f       	mov.b	r15,	r14	
    6462:	3e d0 41 00 	bis	#65,	r14	;#0x0041
    6466:	8f 10       	swpb	r15		
    6468:	4f 4f       	mov.b	r15,	r15	
    646a:	8f 10       	swpb	r15		
    646c:	0e df       	bis	r15,	r14	
    646e:	cb 4e 01 00 	mov.b	r14,	1(r11)	;0x0001(r11)
    6472:	8e 10       	swpb	r14		
    6474:	cb 4e 02 00 	mov.b	r14,	2(r11)	;0x0002(r11)
    6478:	cb 43 32 00 	mov.b	#0,	50(r11)	;r3 As==00, 0x0032(r11)
    647c:	cb 43 2e 00 	mov.b	#0,	46(r11)	;r3 As==00, 0x002e(r11)
    6480:	cb 43 2f 00 	mov.b	#0,	47(r11)	;r3 As==00, 0x002f(r11)
    6484:	cb 43 2b 00 	mov.b	#0,	43(r11)	;r3 As==00, 0x002b(r11)
    6488:	cb 43 2a 00 	mov.b	#0,	42(r11)	;r3 As==00, 0x002a(r11)
    648c:	cb 43 29 00 	mov.b	#0,	41(r11)	;r3 As==00, 0x0029(r11)
    6490:	fb 40 80 ff 28 00 	mov.b	#-128,	40(r11)	;#0xff80, 0x0028(r11)
    6496:	d2 43 90 12 	mov.b	#1,	&0x1290	;r3 As==01
    649a:	1d 42 ec 11 	mov	&0x11ec,r13	
    649e:	0f 42       	mov	r2,	r15	
    64a0:	3f f2       	and	#8,	r15	;r2 As==11
    64a2:	32 c2       	dint			
    64a4:	03 43       	nop			
    64a6:	1e 42 3e 11 	mov	&0x113e,r14	
    64aa:	3e 92       	cmp	#8,	r14	;r2 As==11
    64ac:	02 24       	jz	$+6      	;abs 0x64b2
    64ae:	1e 93       	cmp	#1,	r14	;r3 As==01
    64b0:	04 24       	jz	$+10     	;abs 0x64ba
    64b2:	0f 93       	tst	r15		
    64b4:	22 24       	jz	$+70     	;abs 0x64fa
    64b6:	32 d2       	eint			
    64b8:	20 3c       	jmp	$+66     	;abs 0x64fa
    64ba:	a2 43 3e 11 	mov	#2,	&0x113e	;r3 As==10
    64be:	d2 43 10 18 	mov.b	#1,	&0x1810	;r3 As==01
    64c2:	82 4d c2 11 	mov	r13,	&0x11c2	
    64c6:	c2 43 5d 11 	mov.b	#0,	&0x115d	;r3 As==00
    64ca:	0f 93       	tst	r15		
    64cc:	01 24       	jz	$+4      	;abs 0x64d0
    64ce:	32 d2       	eint			
    64d0:	7f 40 03 00 	mov.b	#3,	r15	;#0x0003
    64d4:	b0 12 04 5c 	call	#0x5c04	
    64d8:	0f 93       	tst	r15		
    64da:	05 24       	jz	$+12     	;abs 0x64e6
    64dc:	7f 40 03 00 	mov.b	#3,	r15	;#0x0003
    64e0:	b0 12 da 5a 	call	#0x5ada	
    64e4:	0a 3c       	jmp	$+22     	;abs 0x64fa
    64e6:	b0 12 fc 55 	call	#0x55fc	
    64ea:	07 3c       	jmp	$+16     	;abs 0x64fa
    64ec:	b0 12 88 4b 	call	#0x4b88	
    64f0:	1f 43       	mov	#1,	r15	;r3 As==01
    64f2:	04 3c       	jmp	$+10     	;abs 0x64fc
    64f4:	3f 40 05 00 	mov	#5,	r15	;#0x0005
    64f8:	01 3c       	jmp	$+4      	;abs 0x64fc
    64fa:	0f 43       	clr	r15		
    64fc:	3a 41       	pop	r10		
    64fe:	3b 41       	pop	r11		
    6500:	30 41       	ret			

00006502 <SchedulerBasicP__TaskBasic__runTask>:
    6502:	0b 12       	push	r11		
    6504:	0a 12       	push	r10		
    6506:	09 12       	push	r9		
    6508:	08 12       	push	r8		
    650a:	07 12       	push	r7		
    650c:	06 12       	push	r6		
    650e:	05 12       	push	r5		
    6510:	04 12       	push	r4		
    6512:	31 82       	sub	#8,	r1	;r2 As==11
    6514:	7f 90 15 00 	cmp.b	#21,	r15	;#0x0015
    6518:	02 28       	jnc	$+6      	;abs 0x651e
    651a:	30 40 9a 72 	br	#0x729a	
    651e:	4f 4f       	mov.b	r15,	r15	
    6520:	0f 5f       	rla	r15		
    6522:	10 4f 68 79 	br	31080(r15)	;0x7968(r15)
    6526:	0f 42       	mov	r2,	r15	
    6528:	3f f2       	and	#8,	r15	;r2 As==11
    652a:	32 c2       	dint			
    652c:	03 43       	nop			
    652e:	d2 92 85 12 73 11 	cmp.b	&0x1285,&0x1173	
    6534:	06 20       	jnz	$+14     	;abs 0x6542
    6536:	c2 93 cb 11 	tst.b	&0x11cb	
    653a:	03 20       	jnz	$+8      	;abs 0x6542
    653c:	c2 43 f2 17 	mov.b	#0,	&0x17f2	;r3 As==00
    6540:	a1 3c       	jmp	$+324    	;abs 0x6684
    6542:	0f 93       	tst	r15		
    6544:	01 24       	jz	$+4      	;abs 0x6548
    6546:	32 d2       	eint			
    6548:	5f 42 85 12 	mov.b	&0x1285,r15	
    654c:	0f 5f       	rla	r15		
    654e:	1b 4f 9a 11 	mov	4506(r15),r11	;0x119a(r15)
    6552:	67 4b       	mov.b	@r11,	r7	
    6554:	48 47       	mov.b	r7,	r8	
    6556:	78 50 f3 ff 	add.b	#-13,	r8	;#0xfff3
    655a:	c2 48 14 12 	mov.b	r8,	&0x1214	
    655e:	56 4b 0b 00 	mov.b	11(r11),r6	;0x000b(r11)
    6562:	54 4b 07 00 	mov.b	7(r11),	r4	;0x0007(r11)
    6566:	55 4b 06 00 	mov.b	6(r11),	r5	;0x0006(r11)
    656a:	5a 4b 09 00 	mov.b	9(r11),	r10	;0x0009(r11)
    656e:	8a 10       	swpb	r10		
    6570:	5f 4b 08 00 	mov.b	8(r11),	r15	;0x0008(r11)
    6574:	0a df       	bis	r15,	r10	
    6576:	59 4b 05 00 	mov.b	5(r11),	r9	;0x0005(r11)
    657a:	89 10       	swpb	r9		
    657c:	5f 4b 04 00 	mov.b	4(r11),	r15	;0x0004(r11)
    6580:	09 df       	bis	r15,	r9	
    6582:	3d 40 07 00 	mov	#7,	r13	;#0x0007
    6586:	0e 43       	clr	r14		
    6588:	0f 4b       	mov	r11,	r15	
    658a:	3f 50 05 00 	add	#5,	r15	;#0x0005
    658e:	b0 12 d0 78 	call	#0x78d0	
    6592:	cb 43 28 00 	mov.b	#0,	40(r11)	;r3 As==00, 0x0028(r11)
    6596:	cb 4a 08 00 	mov.b	r10,	8(r11)	;0x0008(r11)
    659a:	8a 10       	swpb	r10		
    659c:	cb 4a 07 00 	mov.b	r10,	7(r11)	;0x0007(r11)
    65a0:	cb 49 0a 00 	mov.b	r9,	10(r11)	;0x000a(r11)
    65a4:	5f 42 85 12 	mov.b	&0x1285,r15	
    65a8:	0f 5f       	rla	r15		
    65aa:	1f 4f 9a 11 	mov	4506(r15),r15	;0x119a(r15)
    65ae:	78 90 1d 00 	cmp.b	#29,	r8	;#0x001d
    65b2:	02 28       	jnc	$+6      	;abs 0x65b8
    65b4:	30 40 36 71 	br	#0x7136	
    65b8:	4e 44       	mov.b	r4,	r14	
    65ba:	8e 10       	swpb	r14		
    65bc:	4d 45       	mov.b	r5,	r13	
    65be:	0e dd       	bis	r13,	r14	
    65c0:	cf 4e 06 00 	mov.b	r14,	6(r15)	;0x0006(r15)
    65c4:	8e 10       	swpb	r14		
    65c6:	cf 4e 05 00 	mov.b	r14,	5(r15)	;0x0005(r15)
    65ca:	cf 46 0b 00 	mov.b	r6,	11(r15)	;0x000b(r15)
    65ce:	cf 48 09 00 	mov.b	r8,	9(r15)	;0x0009(r15)
    65d2:	82 93 2e 11 	tst	&0x112e	
    65d6:	02 24       	jz	$+6      	;abs 0x65dc
    65d8:	30 40 36 71 	br	#0x7136	
    65dc:	0e 42       	mov	r2,	r14	
    65de:	32 c2       	dint			
    65e0:	03 43       	nop			
    65e2:	f2 40 05 00 2a 11 	mov.b	#5,	&0x112a	;#0x0005
    65e8:	82 43 28 11 	mov	#0,	&0x1128	;r3 As==00
    65ec:	82 4f 30 11 	mov	r15,	&0x1130	
    65f0:	a2 43 2e 11 	mov	#2,	&0x112e	;r3 As==10
    65f4:	c2 43 24 11 	mov.b	#0,	&0x1124	;r3 As==00
    65f8:	c2 43 26 11 	mov.b	#0,	&0x1126	;r3 As==00
    65fc:	77 53       	add.b	#-1,	r7	;r3 As==11
    65fe:	c2 47 2c 11 	mov.b	r7,	&0x112c	
    6602:	3e f2       	and	#8,	r14	;r2 As==11
    6604:	01 24       	jz	$+4      	;abs 0x6608
    6606:	32 d2       	eint			
    6608:	0f 42       	mov	r2,	r15	
    660a:	3f f2       	and	#8,	r15	;r2 As==11
    660c:	32 c2       	dint			
    660e:	03 43       	nop			
    6610:	f2 90 0a 00 84 12 	cmp.b	#10,	&0x1284	;#0x000a
    6616:	04 20       	jnz	$+10     	;abs 0x6620
    6618:	0f 93       	tst	r15		
    661a:	23 24       	jz	$+72     	;abs 0x6662
    661c:	32 d2       	eint			
    661e:	21 3c       	jmp	$+68     	;abs 0x6662
    6620:	0f 93       	tst	r15		
    6622:	01 24       	jz	$+4      	;abs 0x6626
    6624:	32 d2       	eint			
    6626:	0f 42       	mov	r2,	r15	
    6628:	3f f2       	and	#8,	r15	;r2 As==11
    662a:	32 c2       	dint			
    662c:	03 43       	nop			
    662e:	c2 93 e8 11 	tst.b	&0x11e8	
    6632:	06 20       	jnz	$+14     	;abs 0x6640
    6634:	d2 43 e8 11 	mov.b	#1,	&0x11e8	;r3 As==01
    6638:	c2 43 e9 11 	mov.b	#0,	&0x11e9	;r3 As==00
    663c:	5e 43       	mov.b	#1,	r14	;r3 As==01
    663e:	01 3c       	jmp	$+4      	;abs 0x6642
    6640:	4e 43       	clr.b	r14		
    6642:	0f 93       	tst	r15		
    6644:	01 24       	jz	$+4      	;abs 0x6648
    6646:	32 d2       	eint			
    6648:	4e 93       	tst.b	r14		
    664a:	0b 24       	jz	$+24     	;abs 0x6662
    664c:	b0 12 50 4a 	call	#0x4a50	
    6650:	0f 42       	mov	r2,	r15	
    6652:	32 c2       	dint			
    6654:	03 43       	nop			
    6656:	5e 42 31 00 	mov.b	&0x0031,r14	
    665a:	7e e0 20 00 	xor.b	#32,	r14	;#0x0020
    665e:	30 40 5c 72 	br	#0x725c	
    6662:	82 43 2e 11 	mov	#0,	&0x112e	;r3 As==00
    6666:	30 40 36 71 	br	#0x7136	
    666a:	0f 42       	mov	r2,	r15	
    666c:	3f f2       	and	#8,	r15	;r2 As==11
    666e:	32 c2       	dint			
    6670:	03 43       	nop			
    6672:	d2 92 14 18 5c 11 	cmp.b	&0x1814,&0x115c	
    6678:	07 20       	jnz	$+16     	;abs 0x6688
    667a:	c2 93 72 11 	tst.b	&0x1172	
    667e:	04 20       	jnz	$+10     	;abs 0x6688
    6680:	c2 43 5e 11 	mov.b	#0,	&0x115e	;r3 As==00
    6684:	30 40 62 72 	br	#0x7262	
    6688:	0f 93       	tst	r15		
    668a:	01 24       	jz	$+4      	;abs 0x668e
    668c:	32 d2       	eint			
    668e:	5f 42 14 18 	mov.b	&0x1814,r15	
    6692:	0f 5f       	rla	r15		
    6694:	1b 4f ee 11 	mov	4590(r15),r11	;0x11ee(r15)
    6698:	59 4b 09 00 	mov.b	9(r11),	r9	;0x0009(r11)
    669c:	56 4b 05 00 	mov.b	5(r11),	r6	;0x0005(r11)
    66a0:	57 4b 06 00 	mov.b	6(r11),	r7	;0x0006(r11)
    66a4:	5a 4b 07 00 	mov.b	7(r11),	r10	;0x0007(r11)
    66a8:	8a 10       	swpb	r10		
    66aa:	5d 4b 08 00 	mov.b	8(r11),	r13	;0x0008(r11)
    66ae:	0a dd       	bis	r13,	r10	
    66b0:	58 4b 0b 00 	mov.b	11(r11),r8	;0x000b(r11)
    66b4:	3d 40 0c 00 	mov	#12,	r13	;#0x000c
    66b8:	0e 43       	clr	r14		
    66ba:	0f 4b       	mov	r11,	r15	
    66bc:	b0 12 d0 78 	call	#0x78d0	
    66c0:	3d 40 0c 00 	mov	#12,	r13	;#0x000c
    66c4:	0e 43       	clr	r14		
    66c6:	0f 4b       	mov	r11,	r15	
    66c8:	3f 50 28 00 	add	#40,	r15	;#0x0028
    66cc:	b0 12 d0 78 	call	#0x78d0	
    66d0:	cb 4a 08 00 	mov.b	r10,	8(r11)	;0x0008(r11)
    66d4:	8a 10       	swpb	r10		
    66d6:	cb 4a 09 00 	mov.b	r10,	9(r11)	;0x0009(r11)
    66da:	79 90 1d 00 	cmp.b	#29,	r9	;#0x001d
    66de:	58 2c       	jc	$+178    	;abs 0x6790
    66e0:	4f 46       	mov.b	r6,	r15	
    66e2:	8f 10       	swpb	r15		
    66e4:	4e 47       	mov.b	r7,	r14	
    66e6:	0f de       	bis	r14,	r15	
    66e8:	cb 48 0b 00 	mov.b	r8,	11(r11)	;0x000b(r11)
    66ec:	cb 4f 06 00 	mov.b	r15,	6(r11)	;0x0006(r11)
    66f0:	8f 10       	swpb	r15		
    66f2:	cb 4f 07 00 	mov.b	r15,	7(r11)	;0x0007(r11)
    66f6:	0f 42       	mov	r2,	r15	
    66f8:	32 c2       	dint			
    66fa:	03 43       	nop			
    66fc:	1e 42 bc 11 	mov	&0x11bc,r14	
    6700:	3f f2       	and	#8,	r15	;r2 As==11
    6702:	01 24       	jz	$+4      	;abs 0x6706
    6704:	32 d2       	eint			
    6706:	cb 4e 04 00 	mov.b	r14,	4(r11)	;0x0004(r11)
    670a:	8e 10       	swpb	r14		
    670c:	cb 4e 05 00 	mov.b	r14,	5(r11)	;0x0005(r11)
    6710:	0f 42       	mov	r2,	r15	
    6712:	32 c2       	dint			
    6714:	03 43       	nop			
    6716:	1e 42 10 11 	mov	&0x1110,r14	
    671a:	3f f2       	and	#8,	r15	;r2 As==11
    671c:	01 24       	jz	$+4      	;abs 0x6720
    671e:	32 d2       	eint			
    6720:	cb 4e 08 00 	mov.b	r14,	8(r11)	;0x0008(r11)
    6724:	8e 10       	swpb	r14		
    6726:	cb 4e 09 00 	mov.b	r14,	9(r11)	;0x0009(r11)
    672a:	5f 4b 01 00 	mov.b	1(r11),	r15	;0x0001(r11)
    672e:	3f d0 40 88 	bis	#-30656,r15	;#0x8840
    6732:	5e 4b 02 00 	mov.b	2(r11),	r14	;0x0002(r11)
    6736:	8e 10       	swpb	r14		
    6738:	0f de       	bis	r14,	r15	
    673a:	cb 4f 01 00 	mov.b	r15,	1(r11)	;0x0001(r11)
    673e:	8f 10       	swpb	r15		
    6740:	cb 4f 02 00 	mov.b	r15,	2(r11)	;0x0002(r11)
    6744:	4a 49       	mov.b	r9,	r10	
    6746:	7a 50 0d 00 	add.b	#13,	r10	;#0x000d
    674a:	cb 4a 00 00 	mov.b	r10,	0(r11)	;0x0000(r11)
    674e:	c2 93 0d 11 	tst.b	&0x110d	
    6752:	09 24       	jz	$+20     	;abs 0x6766
    6754:	c2 43 0d 11 	mov.b	#0,	&0x110d	;r3 As==00
    6758:	0f 4b       	mov	r11,	r15	
    675a:	b0 12 ec 63 	call	#0x63ec	
    675e:	0f 93       	tst	r15		
    6760:	10 20       	jnz	$+34     	;abs 0x6782
    6762:	30 40 4e 72 	br	#0x724e	
    6766:	c2 49 ea 11 	mov.b	r9,	&0x11ea	
    676a:	c2 43 eb 11 	mov.b	#0,	&0x11eb	;r3 As==00
    676e:	82 4b 38 11 	mov	r11,	&0x1138	
    6772:	7f 40 0d 00 	mov.b	#13,	r15	;#0x000d
    6776:	b0 12 9c 49 	call	#0x499c	
    677a:	c2 93 0d 11 	tst.b	&0x110d	
    677e:	08 24       	jz	$+18     	;abs 0x6790
    6780:	03 3c       	jmp	$+8      	;abs 0x6788
    6782:	f2 43 0d 11 	mov.b	#-1,	&0x110d	;r3 As==11
    6786:	04 3c       	jmp	$+10     	;abs 0x6790
    6788:	c2 43 ca 11 	mov.b	#0,	&0x11ca	;r3 As==00
    678c:	30 40 4e 72 	br	#0x724e	
    6790:	b0 12 c4 4e 	call	#0x4ec4	
    6794:	5f 43       	mov.b	#1,	r15	;r3 As==01
    6796:	b0 12 9c 49 	call	#0x499c	
    679a:	30 40 9a 72 	br	#0x729a	
    679e:	0b 42       	mov	r2,	r11	
    67a0:	32 c2       	dint			
    67a2:	03 43       	nop			
    67a4:	5f 43       	mov.b	#1,	r15	;r3 As==01
    67a6:	b0 12 a2 47 	call	#0x47a2	
    67aa:	92 43 3e 11 	mov	#1,	&0x113e	;r3 As==01
    67ae:	c2 43 3c 11 	mov.b	#0,	&0x113c	;r3 As==00
    67b2:	c2 43 76 11 	mov.b	#0,	&0x1176	;r3 As==00
    67b6:	c2 43 93 11 	mov.b	#0,	&0x1193	;r3 As==00
    67ba:	3b b2       	bit	#8,	r11	;r2 As==11
    67bc:	01 24       	jz	$+4      	;abs 0x67c0
    67be:	32 d2       	eint			
    67c0:	0b 42       	mov	r2,	r11	
    67c2:	32 c2       	dint			
    67c4:	03 43       	nop			
    67c6:	b0 12 8a 47 	call	#0x478a	
    67ca:	92 43 8e 11 	mov	#1,	&0x118e	;r3 As==01
    67ce:	c2 43 b6 11 	mov.b	#0,	&0x11b6	;r3 As==00
    67d2:	f2 f0 fe ff 25 00 	and.b	#-2,	&0x0025	;#0xfffe
    67d8:	f2 f0 fe ff 23 00 	and.b	#-2,	&0x0023	;#0xfffe
    67de:	d2 d3 24 00 	bis.b	#1,	&0x0024	;r3 As==01
    67e2:	d2 d3 25 00 	bis.b	#1,	&0x0025	;r3 As==01
    67e6:	3b b2       	bit	#8,	r11	;r2 As==11
    67e8:	01 24       	jz	$+4      	;abs 0x67ec
    67ea:	32 d2       	eint			
    67ec:	0b 42       	mov	r2,	r11	
    67ee:	3b f2       	and	#8,	r11	;r2 As==11
    67f0:	32 c2       	dint			
    67f2:	03 43       	nop			
    67f4:	a2 92 4e 11 	cmp	#4,	&0x114e	;r2 As==10
    67f8:	04 20       	jnz	$+10     	;abs 0x6802
    67fa:	7f 40 03 00 	mov.b	#3,	r15	;#0x0003
    67fe:	b0 12 14 4b 	call	#0x4b14	
    6802:	0b 93       	tst	r11		
    6804:	01 24       	jz	$+4      	;abs 0x6808
    6806:	32 d2       	eint			
    6808:	0b 42       	mov	r2,	r11	
    680a:	32 c2       	dint			
    680c:	03 43       	nop			
    680e:	b0 12 9a 4b 	call	#0x4b9a	
    6812:	4f 43       	clr.b	r15		
    6814:	b0 12 64 53 	call	#0x5364	
    6818:	3b b2       	bit	#8,	r11	;r2 As==11
    681a:	01 24       	jz	$+4      	;abs 0x681e
    681c:	32 d2       	eint			
    681e:	6f 43       	mov.b	#2,	r15	;r3 As==10
    6820:	b0 12 d8 4e 	call	#0x4ed8	
    6824:	c2 43 72 11 	mov.b	#0,	&0x1172	;r3 As==00
    6828:	30 40 9a 72 	br	#0x729a	
    682c:	4f 43       	clr.b	r15		
    682e:	b0 12 d8 4e 	call	#0x4ed8	
    6832:	30 40 9a 72 	br	#0x729a	
    6836:	0f 42       	mov	r2,	r15	
    6838:	32 c2       	dint			
    683a:	03 43       	nop			
    683c:	1a 42 50 11 	mov	&0x1150,r10	
    6840:	3f f2       	and	#8,	r15	;r2 As==11
    6842:	01 24       	jz	$+4      	;abs 0x6846
    6844:	32 d2       	eint			
    6846:	7f 40 03 00 	mov.b	#3,	r15	;#0x0003
    684a:	b0 12 48 4b 	call	#0x4b48	
    684e:	4f 93       	tst.b	r15		
    6850:	3a 24       	jz	$+118    	;abs 0x68c6
    6852:	0b 42       	mov	r2,	r11	
    6854:	32 c2       	dint			
    6856:	03 43       	nop			
    6858:	82 43 3e 11 	mov	#0,	&0x113e	;r3 As==00
    685c:	b2 f0 ef ff 82 01 	and	#-17,	&0x0182	;#0xffef
    6862:	b2 f0 ef ff 84 01 	and	#-17,	&0x0184	;#0xffef
    6868:	f2 f0 fd ff 1f 00 	and.b	#-3,	&0x001f	;#0xfffd
    686e:	7f 40 03 00 	mov.b	#3,	r15	;#0x0003
    6872:	b0 12 64 53 	call	#0x5364	
    6876:	b0 12 9a 4b 	call	#0x4b9a	
    687a:	3b b2       	bit	#8,	r11	;r2 As==11
    687c:	01 24       	jz	$+4      	;abs 0x6880
    687e:	32 d2       	eint			
    6880:	0b 42       	mov	r2,	r11	
    6882:	32 c2       	dint			
    6884:	03 43       	nop			
    6886:	82 43 8e 11 	mov	#0,	&0x118e	;r3 As==00
    688a:	b0 12 8a 47 	call	#0x478a	
    688e:	b0 12 9a 4b 	call	#0x4b9a	
    6892:	f2 f0 fe ff 25 00 	and.b	#-2,	&0x0025	;#0xfffe
    6898:	3b b2       	bit	#8,	r11	;r2 As==11
    689a:	01 24       	jz	$+4      	;abs 0x689e
    689c:	32 d2       	eint			
    689e:	82 43 4e 11 	mov	#0,	&0x114e	;r3 As==00
    68a2:	b0 12 38 4d 	call	#0x4d38	
    68a6:	0f 42       	mov	r2,	r15	
    68a8:	32 c2       	dint			
    68aa:	03 43       	nop			
    68ac:	f2 f0 df ff 1d 00 	and.b	#-33,	&0x001d	;#0xffdf
    68b2:	3f f2       	and	#8,	r15	;r2 As==11
    68b4:	01 24       	jz	$+4      	;abs 0x68b8
    68b6:	32 d2       	eint			
    68b8:	b0 12 4c 4d 	call	#0x4d4c	
    68bc:	7f 40 03 00 	mov.b	#3,	r15	;#0x0003
    68c0:	b0 12 9c 49 	call	#0x499c	
    68c4:	03 3c       	jmp	$+8      	;abs 0x68cc
    68c6:	6f 43       	mov.b	#2,	r15	;r3 As==10
    68c8:	b0 12 d8 4e 	call	#0x4ed8	
    68cc:	1b 42 ec 11 	mov	&0x11ec,r11	
    68d0:	b0 12 88 4b 	call	#0x4b88	
    68d4:	82 93 f6 17 	tst	&0x17f6	
    68d8:	02 24       	jz	$+6      	;abs 0x68de
    68da:	30 40 9a 72 	br	#0x729a	
    68de:	f2 43 0d 11 	mov.b	#-1,	&0x110d	;r3 As==11
    68e2:	0e 4a       	mov	r10,	r14	
    68e4:	0f 4b       	mov	r11,	r15	
    68e6:	30 40 0e 6e 	br	#0x6e0e	
    68ea:	0b 42       	mov	r2,	r11	
    68ec:	3b f2       	and	#8,	r11	;r2 As==11
    68ee:	32 c2       	dint			
    68f0:	03 43       	nop			
    68f2:	c2 93 0e 18 	tst.b	&0x180e	
    68f6:	02 24       	jz	$+6      	;abs 0x68fc
    68f8:	30 40 04 71 	br	#0x7104	
    68fc:	d2 43 0e 18 	mov.b	#1,	&0x180e	;r3 As==01
    6900:	a2 92 4e 11 	cmp	#4,	&0x114e	;r2 As==10
    6904:	05 20       	jnz	$+12     	;abs 0x6910
    6906:	5f 43       	mov.b	#1,	r15	;r3 As==01
    6908:	b0 12 da 5a 	call	#0x5ada	
    690c:	30 40 04 71 	br	#0x7104	
    6910:	7f 40 06 00 	mov.b	#6,	r15	;#0x0006
    6914:	b0 12 9c 49 	call	#0x499c	
    6918:	30 40 04 71 	br	#0x7104	
    691c:	0f 42       	mov	r2,	r15	
    691e:	32 c2       	dint			
    6920:	03 43       	nop			
    6922:	c2 43 0e 18 	mov.b	#0,	&0x180e	;r3 As==00
    6926:	30 40 60 72 	br	#0x7260	
    692a:	0e 42       	mov	r2,	r14	
    692c:	32 c2       	dint			
    692e:	03 43       	nop			
    6930:	5f 42 16 11 	mov.b	&0x1116,r15	
    6934:	3e f2       	and	#8,	r14	;r2 As==11
    6936:	01 24       	jz	$+4      	;abs 0x693a
    6938:	32 d2       	eint			
    693a:	7f 90 05 00 	cmp.b	#5,	r15	;#0x0005
    693e:	02 28       	jnc	$+6      	;abs 0x6944
    6940:	30 40 9a 72 	br	#0x729a	
    6944:	4f 4f       	mov.b	r15,	r15	
    6946:	0f 5f       	rla	r15		
    6948:	10 4f 92 79 	br	31122(r15)	;0x7992(r15)
    694c:	b0 12 62 4b 	call	#0x4b62	
    6950:	0b 42       	mov	r2,	r11	
    6952:	3b f2       	and	#8,	r11	;r2 As==11
    6954:	32 c2       	dint			
    6956:	03 43       	nop			
    6958:	a2 93 4e 11 	cmp	#2,	&0x114e	;r3 As==10
    695c:	02 24       	jz	$+6      	;abs 0x6962
    695e:	30 40 04 71 	br	#0x7104	
    6962:	b2 40 03 00 4e 11 	mov	#3,	&0x114e	;#0x0003
    6968:	3e 40 18 00 	mov	#24,	r14	;#0x0018
    696c:	7f 40 1d 00 	mov.b	#29,	r15	;#0x001d
    6970:	b0 12 b4 55 	call	#0x55b4	
    6974:	f2 f0 ef ff 25 00 	and.b	#-17,	&0x0025	;#0xffef
    697a:	f2 f0 ef ff 23 00 	and.b	#-17,	&0x0023	;#0xffef
    6980:	f2 f0 ef ff 24 00 	and.b	#-17,	&0x0024	;#0xffef
    6986:	f2 d0 10 00 25 00 	bis.b	#16,	&0x0025	;#0x0010
    698c:	5f 43       	mov.b	#1,	r15	;r3 As==01
    698e:	b0 12 14 4b 	call	#0x4b14	
    6992:	3e 40 7f 02 	mov	#639,	r14	;#0x027f
    6996:	7f 40 1c 00 	mov.b	#28,	r15	;#0x001c
    699a:	b0 12 b4 55 	call	#0x55b4	
    699e:	b0 12 8e 56 	call	#0x568e	
    69a2:	b0 12 bc 56 	call	#0x56bc	
    69a6:	3e 40 56 2a 	mov	#10838,	r14	;#0x2a56
    69aa:	7f 40 17 00 	mov.b	#23,	r15	;#0x0017
    69ae:	b0 12 b4 55 	call	#0x55b4	
    69b2:	3e 40 ff 80 	mov	#-32513,r14	;#0x80ff
    69b6:	7f 40 15 00 	mov.b	#21,	r15	;#0x0015
    69ba:	b0 12 b4 55 	call	#0x55b4	
    69be:	30 40 04 71 	br	#0x7104	
    69c2:	b0 12 62 4b 	call	#0x4b62	
    69c6:	7f 40 06 00 	mov.b	#6,	r15	;#0x0006
    69ca:	b0 12 14 4b 	call	#0x4b14	
    69ce:	b0 12 8e 56 	call	#0x568e	
    69d2:	b0 12 bc 56 	call	#0x56bc	
    69d6:	b0 12 8a 57 	call	#0x578a	
    69da:	b0 12 9a 4b 	call	#0x4b9a	
    69de:	b0 12 62 4b 	call	#0x4b62	
    69e2:	7f 40 03 00 	mov.b	#3,	r15	;#0x0003
    69e6:	b0 12 14 4b 	call	#0x4b14	
    69ea:	b0 12 9a 4b 	call	#0x4b9a	
    69ee:	5f 43       	mov.b	#1,	r15	;r3 As==01
    69f0:	b0 12 64 53 	call	#0x5364	
    69f4:	7f 40 06 00 	mov.b	#6,	r15	;#0x0006
    69f8:	30 40 96 67 	br	#0x6796	
    69fc:	b0 12 62 4b 	call	#0x4b62	
    6a00:	0b 42       	mov	r2,	r11	
    6a02:	3b f2       	and	#8,	r11	;r2 As==11
    6a04:	32 c2       	dint			
    6a06:	03 43       	nop			
    6a08:	b0 12 fc 4a 	call	#0x4afc	
    6a0c:	4f 93       	tst.b	r15		
    6a0e:	04 24       	jz	$+10     	;abs 0x6a18
    6a10:	0b 93       	tst	r11		
    6a12:	0f 24       	jz	$+32     	;abs 0x6a32
    6a14:	32 d2       	eint			
    6a16:	0d 3c       	jmp	$+28     	;abs 0x6a32
    6a18:	0b 93       	tst	r11		
    6a1a:	01 24       	jz	$+4      	;abs 0x6a1e
    6a1c:	32 d2       	eint			
    6a1e:	7f 40 53 00 	mov.b	#83,	r15	;#0x0053
    6a22:	b0 12 0e 46 	call	#0x460e	
    6a26:	4f 43       	clr.b	r15		
    6a28:	b0 12 0e 46 	call	#0x460e	
    6a2c:	4f 43       	clr.b	r15		
    6a2e:	b0 12 0e 46 	call	#0x460e	
    6a32:	b0 12 9a 4b 	call	#0x4b9a	
    6a36:	6f 43       	mov.b	#2,	r15	;r3 As==10
    6a38:	b0 12 64 53 	call	#0x5364	
    6a3c:	30 40 9a 72 	br	#0x729a	
    6a40:	0e 42       	mov	r2,	r14	
    6a42:	32 c2       	dint			
    6a44:	03 43       	nop			
    6a46:	5f 42 3e 11 	mov.b	&0x113e,r15	
    6a4a:	3e f2       	and	#8,	r14	;r2 As==11
    6a4c:	01 24       	jz	$+4      	;abs 0x6a50
    6a4e:	32 d2       	eint			
    6a50:	6f 92       	cmp.b	#4,	r15	;r2 As==10
    6a52:	08 24       	jz	$+18     	;abs 0x6a64
    6a54:	7f 92       	cmp.b	#8,	r15	;r2 As==11
    6a56:	0a 24       	jz	$+22     	;abs 0x6a6c
    6a58:	6f 93       	cmp.b	#2,	r15	;r3 As==10
    6a5a:	20 20       	jnz	$+66     	;abs 0x6a9c
    6a5c:	b0 12 fc 55 	call	#0x55fc	
    6a60:	30 40 9a 72 	br	#0x729a	
    6a64:	b0 12 1e 55 	call	#0x551e	
    6a68:	30 40 9a 72 	br	#0x729a	
    6a6c:	b0 12 62 4b 	call	#0x4b62	
    6a70:	7f 40 09 00 	mov.b	#9,	r15	;#0x0009
    6a74:	b0 12 14 4b 	call	#0x4b14	
    6a78:	b0 12 9a 4b 	call	#0x4b9a	
    6a7c:	b0 12 1c 54 	call	#0x541c	
    6a80:	0f 42       	mov	r2,	r15	
    6a82:	32 c2       	dint			
    6a84:	03 43       	nop			
    6a86:	92 43 3e 11 	mov	#1,	&0x113e	;r3 As==01
    6a8a:	3f f2       	and	#8,	r15	;r2 As==11
    6a8c:	01 24       	jz	$+4      	;abs 0x6a90
    6a8e:	32 d2       	eint			
    6a90:	3f 40 03 00 	mov	#3,	r15	;#0x0003
    6a94:	b0 12 ec 54 	call	#0x54ec	
    6a98:	30 40 9a 72 	br	#0x729a	
    6a9c:	b0 12 1c 54 	call	#0x541c	
    6aa0:	30 40 9a 72 	br	#0x729a	
    6aa4:	b0 12 b2 54 	call	#0x54b2	
    6aa8:	30 40 9a 72 	br	#0x729a	
    6aac:	0b 42       	mov	r2,	r11	
    6aae:	32 c2       	dint			
    6ab0:	03 43       	nop			
    6ab2:	b0 12 1c 5d 	call	#0x5d1c	
    6ab6:	30 40 d8 6d 	br	#0x6dd8	
    6aba:	0f 42       	mov	r2,	r15	
    6abc:	32 c2       	dint			
    6abe:	03 43       	nop			
    6ac0:	d2 42 12 11 13 11 	mov.b	&0x1112,&0x1113	
    6ac6:	f2 43 12 11 	mov.b	#-1,	&0x1112	;r3 As==11
    6aca:	a2 42 b8 11 	mov	#4,	&0x11b8	;r2 As==10
    6ace:	3f f2       	and	#8,	r15	;r2 As==11
    6ad0:	01 24       	jz	$+4      	;abs 0x6ad4
    6ad2:	32 d2       	eint			
    6ad4:	c2 93 13 11 	tst.b	&0x1113	
    6ad8:	02 20       	jnz	$+6      	;abs 0x6ade
    6ada:	b0 12 8c 5b 	call	#0x5b8c	
    6ade:	c2 93 13 11 	tst.b	&0x1113	
    6ae2:	02 24       	jz	$+6      	;abs 0x6ae8
    6ae4:	30 40 9a 72 	br	#0x729a	
    6ae8:	7f 40 07 00 	mov.b	#7,	r15	;#0x0007
    6aec:	30 40 96 67 	br	#0x6796	
    6af0:	1f 42 54 11 	mov	&0x1154,r15	
    6af4:	6b 4f       	mov.b	@r15,	r11	
    6af6:	4d 4b       	mov.b	r11,	r13	
    6af8:	0d 5f       	add	r15,	r13	
    6afa:	6e 4d       	mov.b	@r13,	r14	
    6afc:	4e 5e       	rla.b	r14		
    6afe:	0e 43       	clr	r14		
    6b00:	0e 6e       	rlc	r14		
    6b02:	cf 4e 31 00 	mov.b	r14,	49(r15)	;0x0031(r15)
    6b06:	6e 4d       	mov.b	@r13,	r14	
    6b08:	7e f0 7f 00 	and.b	#127,	r14	;#0x007f
    6b0c:	cf 4e 2f 00 	mov.b	r14,	47(r15)	;0x002f(r15)
    6b10:	df 4d ff ff 2e 00 	mov.b	-1(r13),46(r15)	;0xffff(r13), 0x002e(r15)
    6b16:	5e 4f 02 00 	mov.b	2(r15),	r14	;0x0002(r15)
    6b1a:	5c 4f 01 00 	mov.b	1(r15),	r12	;0x0001(r15)
    6b1e:	0d 42       	mov	r2,	r13	
    6b20:	32 c2       	dint			
    6b22:	03 43       	nop			
    6b24:	5a 42 94 11 	mov.b	&0x1194,r10	
    6b28:	3d f2       	and	#8,	r13	;r2 As==11
    6b2a:	01 24       	jz	$+4      	;abs 0x6b2e
    6b2c:	32 d2       	eint			
    6b2e:	4a 93       	tst.b	r10		
    6b30:	44 24       	jz	$+138    	;abs 0x6bba
    6b32:	4e 4e       	mov.b	r14,	r14	
    6b34:	8e 10       	swpb	r14		
    6b36:	4d 4c       	mov.b	r12,	r13	
    6b38:	0e dd       	bis	r13,	r14	
    6b3a:	8e 10       	swpb	r14		
    6b3c:	4e 4e       	mov.b	r14,	r14	
    6b3e:	12 c3       	clrc			
    6b40:	0e 10       	rrc	r14		
    6b42:	12 c3       	clrc			
    6b44:	0e 10       	rrc	r14		
    6b46:	3e f0 03 00 	and	#3,	r14	;#0x0003
    6b4a:	2e 93       	cmp	#2,	r14	;r3 As==10
    6b4c:	1f 20       	jnz	$+64     	;abs 0x6b8c
    6b4e:	5e 4f 07 00 	mov.b	7(r15),	r14	;0x0007(r15)
    6b52:	8e 10       	swpb	r14		
    6b54:	5d 4f 06 00 	mov.b	6(r15),	r13	;0x0006(r15)
    6b58:	0e dd       	bis	r13,	r14	
    6b5a:	0d 42       	mov	r2,	r13	
    6b5c:	32 c2       	dint			
    6b5e:	03 43       	nop			
    6b60:	1c 42 de 11 	mov	&0x11de,r12	
    6b64:	3d f2       	and	#8,	r13	;r2 As==11
    6b66:	01 24       	jz	$+4      	;abs 0x6b6a
    6b68:	32 d2       	eint			
    6b6a:	0e 9c       	cmp	r12,	r14	
    6b6c:	0b 24       	jz	$+24     	;abs 0x6b84
    6b6e:	5e 4f 07 00 	mov.b	7(r15),	r14	;0x0007(r15)
    6b72:	8e 10       	swpb	r14		
    6b74:	5f 4f 06 00 	mov.b	6(r15),	r15	;0x0006(r15)
    6b78:	0e df       	bis	r15,	r14	
    6b7a:	1f 43       	mov	#1,	r15	;r3 As==01
    6b7c:	3e 93       	cmp	#-1,	r14	;r3 As==11
    6b7e:	03 24       	jz	$+8      	;abs 0x6b86
    6b80:	0f 43       	clr	r15		
    6b82:	01 3c       	jmp	$+4      	;abs 0x6b86
    6b84:	1f 43       	mov	#1,	r15	;r3 As==01
    6b86:	0f 93       	tst	r15		
    6b88:	b2 24       	jz	$+358    	;abs 0x6cee
    6b8a:	17 3c       	jmp	$+48     	;abs 0x6bba
    6b8c:	3e 90 03 00 	cmp	#3,	r14	;#0x0003
    6b90:	ae 20       	jnz	$+350    	;abs 0x6cee
    6b92:	91 42 9c 12 00 00 	mov	&0x129c,0(r1)	;0x0000(r1)
    6b98:	91 42 9e 12 02 00 	mov	&0x129e,2(r1)	;0x0002(r1)
    6b9e:	91 42 a0 12 04 00 	mov	&0x12a0,4(r1)	;0x0004(r1)
    6ba4:	91 42 a2 12 06 00 	mov	&0x12a2,6(r1)	;0x0006(r1)
    6baa:	3d 42       	mov	#8,	r13	;r2 As==11
    6bac:	0e 41       	mov	r1,	r14	
    6bae:	3f 50 06 00 	add	#6,	r15	;#0x0006
    6bb2:	b0 12 b6 77 	call	#0x77b6	
    6bb6:	0f 93       	tst	r15		
    6bb8:	9a 20       	jnz	$+310    	;abs 0x6cee
    6bba:	7b 90 0d 00 	cmp.b	#13,	r11	;#0x000d
    6bbe:	97 28       	jnc	$+304    	;abs 0x6cee
    6bc0:	1b 42 54 11 	mov	&0x1154,r11	
    6bc4:	5e 4b 02 00 	mov.b	2(r11),	r14	;0x0002(r11)
    6bc8:	8e 10       	swpb	r14		
    6bca:	5f 4b 01 00 	mov.b	1(r11),	r15	;0x0001(r11)
    6bce:	0e df       	bis	r15,	r14	
    6bd0:	0f 4e       	mov	r14,	r15	
    6bd2:	8f 10       	swpb	r15		
    6bd4:	4f 4f       	mov.b	r15,	r15	
    6bd6:	12 c3       	clrc			
    6bd8:	0f 10       	rrc	r15		
    6bda:	12 c3       	clrc			
    6bdc:	0f 10       	rrc	r15		
    6bde:	3f f0 03 00 	and	#3,	r15	;#0x0003
    6be2:	0a 4b       	mov	r11,	r10	
    6be4:	3a 50 06 00 	add	#6,	r10	;#0x0006
    6be8:	8e 10       	swpb	r14		
    6bea:	4e 4e       	mov.b	r14,	r14	
    6bec:	7d 40 06 00 	mov.b	#6,	r13	;#0x0006
    6bf0:	12 c3       	clrc			
    6bf2:	0e 10       	rrc	r14		
    6bf4:	7d 53       	add.b	#-1,	r13	;r3 As==11
    6bf6:	fc 23       	jnz	$-6      	;abs 0x6bf0
    6bf8:	3e 90 03 00 	cmp	#3,	r14	;#0x0003
    6bfc:	02 24       	jz	$+6      	;abs 0x6c02
    6bfe:	2e 43       	mov	#2,	r14	;r3 As==10
    6c00:	01 3c       	jmp	$+4      	;abs 0x6c04
    6c02:	3e 42       	mov	#8,	r14	;r2 As==11
    6c04:	3f 90 03 00 	cmp	#3,	r15	;#0x0003
    6c08:	02 24       	jz	$+6      	;abs 0x6c0e
    6c0a:	2f 43       	mov	#2,	r15	;r3 As==10
    6c0c:	01 3c       	jmp	$+4      	;abs 0x6c10
    6c0e:	3f 42       	mov	#8,	r15	;r2 As==11
    6c10:	0a 5f       	add	r15,	r10	
    6c12:	0d 43       	clr	r13		
    6c14:	0f 43       	clr	r15		
    6c16:	0c 4a       	mov	r10,	r12	
    6c18:	0c 5f       	add	r15,	r12	
    6c1a:	6c 4c       	mov.b	@r12,	r12	
    6c1c:	0d 5c       	add	r12,	r13	
    6c1e:	1f 53       	inc	r15		
    6c20:	0f 9e       	cmp	r14,	r15	
    6c22:	f9 3b       	jl	$-12     	;abs 0x6c16
    6c24:	59 4b 03 00 	mov.b	3(r11),	r9	;0x0003(r11)
    6c28:	f2 43 f8 17 	mov.b	#-1,	&0x17f8	;r3 As==11
    6c2c:	0c 42       	mov	r2,	r12	
    6c2e:	3c f2       	and	#8,	r12	;r2 As==11
    6c30:	32 c2       	dint			
    6c32:	03 43       	nop			
    6c34:	5a 42 f8 17 	mov.b	&0x17f8,r10	
    6c38:	3f 40 60 11 	mov	#4448,	r15	;#0x1160
    6c3c:	0e 43       	clr	r14		
    6c3e:	2d 9f       	cmp	@r15,	r13	
    6c40:	0a 20       	jnz	$+22     	;abs 0x6c56
    6c42:	cf 99 02 00 	cmp.b	r9,	2(r15)	;0x0002(r15)
    6c46:	06 20       	jnz	$+14     	;abs 0x6c54
    6c48:	c2 4a f8 17 	mov.b	r10,	&0x17f8	
    6c4c:	0c 93       	tst	r12		
    6c4e:	4d 24       	jz	$+156    	;abs 0x6cea
    6c50:	32 d2       	eint			
    6c52:	4b 3c       	jmp	$+152    	;abs 0x6cea
    6c54:	4a 4e       	mov.b	r14,	r10	
    6c56:	1e 53       	inc	r14		
    6c58:	2f 52       	add	#4,	r15	;r2 As==10
    6c5a:	2e 92       	cmp	#4,	r14	;r2 As==10
    6c5c:	f0 23       	jnz	$-30     	;abs 0x6c3e
    6c5e:	c2 4a f8 17 	mov.b	r10,	&0x17f8	
    6c62:	0c 93       	tst	r12		
    6c64:	02 20       	jnz	$+6      	;abs 0x6c6a
    6c66:	30 40 68 72 	br	#0x7268	
    6c6a:	32 d2       	eint			
    6c6c:	30 40 68 72 	br	#0x7268	
    6c70:	c2 9f 3a 11 	cmp.b	r15,	&0x113a	
    6c74:	04 20       	jnz	$+10     	;abs 0x6c7e
    6c76:	5f 42 3a 11 	mov.b	&0x113a,r15	
    6c7a:	5c 43       	mov.b	#1,	r12	;r3 As==01
    6c7c:	01 3c       	jmp	$+4      	;abs 0x6c80
    6c7e:	4c 43       	clr.b	r12		
    6c80:	4f 4f       	mov.b	r15,	r15	
    6c82:	0f 5f       	rla	r15		
    6c84:	0f 5f       	rla	r15		
    6c86:	8f 4d 60 11 	mov	r13,	4448(r15);0x1160(r15)
    6c8a:	cf 49 62 11 	mov.b	r9,	4450(r15);0x1162(r15)
    6c8e:	4c 93       	tst.b	r12		
    6c90:	07 24       	jz	$+16     	;abs 0x6ca0
    6c92:	5f 42 3a 11 	mov.b	&0x113a,r15	
    6c96:	5f 53       	inc.b	r15		
    6c98:	7f f0 03 00 	and.b	#3,	r15	;#0x0003
    6c9c:	c2 4f 3a 11 	mov.b	r15,	&0x113a	
    6ca0:	0e 93       	tst	r14		
    6ca2:	01 24       	jz	$+4      	;abs 0x6ca6
    6ca4:	32 d2       	eint			
    6ca6:	0a 42       	mov	r2,	r10	
    6ca8:	32 c2       	dint			
    6caa:	03 43       	nop			
    6cac:	0f 4b       	mov	r11,	r15	
    6cae:	b0 12 32 47 	call	#0x4732	
    6cb2:	6f 4f       	mov.b	@r15,	r15	
    6cb4:	3a b2       	bit	#8,	r10	;r2 As==11
    6cb6:	01 24       	jz	$+4      	;abs 0x6cba
    6cb8:	32 d2       	eint			
    6cba:	cb 93 31 00 	tst.b	49(r11)	;0x0031(r11)
    6cbe:	15 24       	jz	$+44     	;abs 0x6cea
    6cc0:	7f 90 3f 00 	cmp.b	#63,	r15	;#0x003f
    6cc4:	12 20       	jnz	$+38     	;abs 0x6cea
    6cc6:	5f 4b 07 00 	mov.b	7(r11),	r15	;0x0007(r11)
    6cca:	8f 10       	swpb	r15		
    6ccc:	5e 4b 06 00 	mov.b	6(r11),	r14	;0x0006(r11)
    6cd0:	0f de       	bis	r14,	r15	
    6cd2:	0e 42       	mov	r2,	r14	
    6cd4:	32 c2       	dint			
    6cd6:	03 43       	nop			
    6cd8:	1d 42 10 11 	mov	&0x1110,r13	
    6cdc:	3e f2       	and	#8,	r14	;r2 As==11
    6cde:	01 24       	jz	$+4      	;abs 0x6ce2
    6ce0:	32 d2       	eint			
    6ce2:	0f 4b       	mov	r11,	r15	
    6ce4:	b0 12 44 76 	call	#0x7644	
    6ce8:	0b 4f       	mov	r15,	r11	
    6cea:	82 4b 54 11 	mov	r11,	&0x1154	
    6cee:	0f 42       	mov	r2,	r15	
    6cf0:	32 c2       	dint			
    6cf2:	03 43       	nop			
    6cf4:	c2 43 b6 11 	mov.b	#0,	&0x11b6	;r3 As==00
    6cf8:	3f f2       	and	#8,	r15	;r2 As==11
    6cfa:	01 24       	jz	$+4      	;abs 0x6cfe
    6cfc:	32 d2       	eint			
    6cfe:	b0 12 a4 5c 	call	#0x5ca4	
    6d02:	30 40 9a 72 	br	#0x729a	
    6d06:	c2 93 92 11 	tst.b	&0x1192	
    6d0a:	28 20       	jnz	$+82     	;abs 0x6d5c
    6d0c:	1e 42 90 17 	mov	&0x1790,r14	
    6d10:	1f 42 92 17 	mov	&0x1792,r15	
    6d14:	0b 42       	mov	r2,	r11	
    6d16:	32 c2       	dint			
    6d18:	03 43       	nop			
    6d1a:	1c 42 96 11 	mov	&0x1196,r12	
    6d1e:	1d 42 98 11 	mov	&0x1198,r13	
    6d22:	1c 52 58 11 	add	&0x1158,r12	
    6d26:	1d 62 5a 11 	addc	&0x115a,r13	
    6d2a:	3b f2       	and	#8,	r11	;r2 As==11
    6d2c:	01 24       	jz	$+4      	;abs 0x6d30
    6d2e:	32 d2       	eint			
    6d30:	82 4e 90 17 	mov	r14,	&0x1790	
    6d34:	82 4f 92 17 	mov	r15,	&0x1792	
    6d38:	c2 43 92 11 	mov.b	#0,	&0x1192	;r3 As==00
    6d3c:	0b 42       	mov	r2,	r11	
    6d3e:	32 c2       	dint			
    6d40:	03 43       	nop			
    6d42:	82 4c 58 11 	mov	r12,	&0x1158	
    6d46:	82 4d 5a 11 	mov	r13,	&0x115a	
    6d4a:	82 4e 96 11 	mov	r14,	&0x1196	
    6d4e:	82 4f 98 11 	mov	r15,	&0x1198	
    6d52:	b0 12 ce 4d 	call	#0x4dce	
    6d56:	3b b2       	bit	#8,	r11	;r2 As==11
    6d58:	01 24       	jz	$+4      	;abs 0x6d5c
    6d5a:	32 d2       	eint			
    6d5c:	b0 12 60 4d 	call	#0x4d60	
    6d60:	24 3c       	jmp	$+74     	;abs 0x6daa
    6d62:	b0 12 60 4d 	call	#0x4d60	
    6d66:	b2 f0 ef ff 86 01 	and	#-17,	&0x0186	;#0xffef
    6d6c:	e2 b3 0a 18 	bit.b	#2,	&0x180a	;r3 As==10
    6d70:	02 20       	jnz	$+6      	;abs 0x6d76
    6d72:	30 40 9a 72 	br	#0x729a	
    6d76:	0c 4e       	mov	r14,	r12	
    6d78:	0d 4f       	mov	r15,	r13	
    6d7a:	1c 82 fe 17 	sub	&0x17fe,r12	
    6d7e:	1d 72 00 18 	subc	&0x1800,r13	
    6d82:	1a 42 02 18 	mov	&0x1802,r10	
    6d86:	1b 42 04 18 	mov	&0x1804,r11	
    6d8a:	0a 8c       	sub	r12,	r10	
    6d8c:	0b 7d       	subc	r13,	r11	
    6d8e:	0c 4a       	mov	r10,	r12	
    6d90:	0d 4b       	mov	r11,	r13	
    6d92:	0b 4d       	mov	r13,	r11	
    6d94:	3a 93       	cmp	#-1,	r10	;r3 As==11
    6d96:	02 24       	jz	$+6      	;abs 0x6d9c
    6d98:	30 40 80 72 	br	#0x7280	
    6d9c:	3d 90 ff 7f 	cmp	#32767,	r13	;#0x7fff
    6da0:	02 24       	jz	$+6      	;abs 0x6da6
    6da2:	30 40 80 72 	br	#0x7280	
    6da6:	30 40 9a 72 	br	#0x729a	
    6daa:	b0 12 f6 49 	call	#0x49f6	
    6dae:	30 40 9a 72 	br	#0x729a	
    6db2:	82 4c 90 17 	mov	r12,	&0x1790	
    6db6:	82 4d 92 17 	mov	r13,	&0x1792	
    6dba:	d2 43 92 11 	mov.b	#1,	&0x1192	;r3 As==01
    6dbe:	0b 42       	mov	r2,	r11	
    6dc0:	32 c2       	dint			
    6dc2:	03 43       	nop			
    6dc4:	82 4e 58 11 	mov	r14,	&0x1158	
    6dc8:	82 4f 5a 11 	mov	r15,	&0x115a	
    6dcc:	82 4c 96 11 	mov	r12,	&0x1196	
    6dd0:	82 4d 98 11 	mov	r13,	&0x1198	
    6dd4:	b0 12 ce 4d 	call	#0x4dce	
    6dd8:	0f 4b       	mov	r11,	r15	
    6dda:	30 40 60 72 	br	#0x7260	
    6dde:	5f 42 ca 11 	mov.b	&0x11ca,r15	
    6de2:	5f 92 0d 11 	cmp.b	&0x110d,r15	
    6de6:	02 20       	jnz	$+6      	;abs 0x6dec
    6de8:	30 40 9a 72 	br	#0x729a	
    6dec:	c2 4f 0d 11 	mov.b	r15,	&0x110d	
    6df0:	4f 93       	tst.b	r15		
    6df2:	11 20       	jnz	$+36     	;abs 0x6e16
    6df4:	1f 42 38 11 	mov	&0x1138,r15	
    6df8:	b0 12 ec 63 	call	#0x63ec	
    6dfc:	4f 93       	tst.b	r15		
    6dfe:	02 20       	jnz	$+6      	;abs 0x6e04
    6e00:	30 40 9a 72 	br	#0x729a	
    6e04:	f2 43 0d 11 	mov.b	#-1,	&0x110d	;r3 As==11
    6e08:	4e 4f       	mov.b	r15,	r14	
    6e0a:	1f 42 38 11 	mov	&0x1138,r15	
    6e0e:	b0 12 dc 57 	call	#0x57dc	
    6e12:	30 40 9a 72 	br	#0x729a	
    6e16:	f2 43 0d 11 	mov.b	#-1,	&0x110d	;r3 As==11
    6e1a:	30 40 9a 72 	br	#0x729a	
    6e1e:	0b 42       	mov	r2,	r11	
    6e20:	3b f2       	and	#8,	r11	;r2 As==11
    6e22:	32 c2       	dint			
    6e24:	03 43       	nop			
    6e26:	c2 43 fd 17 	mov.b	#0,	&0x17fd	;r3 As==00
    6e2a:	5d 42 84 12 	mov.b	&0x1284,r13	
    6e2e:	5e 43       	mov.b	#1,	r14	;r3 As==01
    6e30:	7d 92       	cmp.b	#8,	r13	;r2 As==11
    6e32:	01 24       	jz	$+4      	;abs 0x6e36
    6e34:	4e 43       	clr.b	r14		
    6e36:	5c 43       	mov.b	#1,	r12	;r3 As==01
    6e38:	7d 90 09 00 	cmp.b	#9,	r13	;#0x0009
    6e3c:	01 24       	jz	$+4      	;abs 0x6e40
    6e3e:	4c 43       	clr.b	r12		
    6e40:	4e 93       	tst.b	r14		
    6e42:	02 20       	jnz	$+6      	;abs 0x6e48
    6e44:	4c 93       	tst.b	r12		
    6e46:	07 24       	jz	$+16     	;abs 0x6e56
    6e48:	c2 43 84 12 	mov.b	#0,	&0x1284	;r3 As==00
    6e4c:	5f 42 15 12 	mov.b	&0x1215,r15	
    6e50:	0f 5f       	rla	r15		
    6e52:	cf 43 e6 11 	mov.b	#0,	4582(r15);r3 As==00, 0x11e6(r15)
    6e56:	0b 93       	tst	r11		
    6e58:	01 24       	jz	$+4      	;abs 0x6e5c
    6e5a:	32 d2       	eint			
    6e5c:	4e 93       	tst.b	r14		
    6e5e:	02 20       	jnz	$+6      	;abs 0x6e64
    6e60:	4c 93       	tst.b	r12		
    6e62:	24 24       	jz	$+74     	;abs 0x6eac
    6e64:	0f 42       	mov	r2,	r15	
    6e66:	3f f2       	and	#8,	r15	;r2 As==11
    6e68:	32 c2       	dint			
    6e6a:	03 43       	nop			
    6e6c:	d2 53 ea 17 	inc.b	&0x17ea	
    6e70:	f2 90 43 00 d9 11 	cmp.b	#67,	&0x11d9	;#0x0043
    6e76:	0e 20       	jnz	$+30     	;abs 0x6e94
    6e78:	5e 42 07 12 	mov.b	&0x1207,r14	
    6e7c:	5e 92 06 12 	cmp.b	&0x1206,r14	
    6e80:	0f 24       	jz	$+32     	;abs 0x6ea0
    6e82:	5e 53       	inc.b	r14		
    6e84:	c2 4e 07 12 	mov.b	r14,	&0x1207	
    6e88:	7e 90 06 00 	cmp.b	#6,	r14	;#0x0006
    6e8c:	09 28       	jnc	$+20     	;abs 0x6ea0
    6e8e:	c2 43 07 12 	mov.b	#0,	&0x1207	;r3 As==00
    6e92:	06 3c       	jmp	$+14     	;abs 0x6ea0
    6e94:	1a 43       	mov	#1,	r10	;r3 As==01
    6e96:	4e 93       	tst.b	r14		
    6e98:	01 24       	jz	$+4      	;abs 0x6e9c
    6e9a:	0a 43       	clr	r10		
    6e9c:	59 43       	mov.b	#1,	r9	;r3 As==01
    6e9e:	02 3c       	jmp	$+6      	;abs 0x6ea4
    6ea0:	49 43       	clr.b	r9		
    6ea2:	0a 43       	clr	r10		
    6ea4:	0f 93       	tst	r15		
    6ea6:	06 24       	jz	$+14     	;abs 0x6eb4
    6ea8:	32 d2       	eint			
    6eaa:	04 3c       	jmp	$+10     	;abs 0x6eb4
    6eac:	4d 93       	tst.b	r13		
    6eae:	5f 20       	jnz	$+192    	;abs 0x6f6e
    6eb0:	0a 43       	clr	r10		
    6eb2:	49 43       	clr.b	r9		
    6eb4:	0f 42       	mov	r2,	r15	
    6eb6:	32 c2       	dint			
    6eb8:	03 43       	nop			
    6eba:	5e 42 36 11 	mov.b	&0x1136,r14	
    6ebe:	3f f2       	and	#8,	r15	;r2 As==11
    6ec0:	01 24       	jz	$+4      	;abs 0x6ec4
    6ec2:	32 d2       	eint			
    6ec4:	0f 42       	mov	r2,	r15	
    6ec6:	32 c2       	dint			
    6ec8:	03 43       	nop			
    6eca:	4e 93       	tst.b	r14		
    6ecc:	07 24       	jz	$+16     	;abs 0x6edc
    6ece:	f2 40 0a 00 84 12 	mov.b	#10,	&0x1284	;#0x000a
    6ed4:	3f f2       	and	#8,	r15	;r2 As==11
    6ed6:	39 24       	jz	$+116    	;abs 0x6f4a
    6ed8:	32 d2       	eint			
    6eda:	37 3c       	jmp	$+112    	;abs 0x6f4a
    6edc:	58 42 e6 11 	mov.b	&0x11e6,r8	
    6ee0:	5b 42 e8 11 	mov.b	&0x11e8,r11	
    6ee4:	3f f2       	and	#8,	r15	;r2 As==11
    6ee6:	01 24       	jz	$+4      	;abs 0x6eea
    6ee8:	32 d2       	eint			
    6eea:	b0 12 ea 4e 	call	#0x4eea	
    6eee:	4f 93       	tst.b	r15		
    6ef0:	1c 20       	jnz	$+58     	;abs 0x6f2a
    6ef2:	48 93       	tst.b	r8		
    6ef4:	1a 20       	jnz	$+54     	;abs 0x6f2a
    6ef6:	0b 42       	mov	r2,	r11	
    6ef8:	3b f2       	and	#8,	r11	;r2 As==11
    6efa:	32 c2       	dint			
    6efc:	03 43       	nop			
    6efe:	e2 43 e6 11 	mov.b	#2,	&0x11e6	;r3 As==10
    6f02:	b0 12 ea 4e 	call	#0x4eea	
    6f06:	4f 93       	tst.b	r15		
    6f08:	05 20       	jnz	$+12     	;abs 0x6f14
    6f0a:	5f 42 07 12 	mov.b	&0x1207,r15	
    6f0e:	5f 4f 08 12 	mov.b	4616(r15),r15	;0x1208(r15)
    6f12:	01 3c       	jmp	$+4      	;abs 0x6f16
    6f14:	4f 43       	clr.b	r15		
    6f16:	c2 4f e7 11 	mov.b	r15,	&0x11e7	
    6f1a:	f2 40 43 00 d9 11 	mov.b	#67,	&0x11d9	;#0x0043
    6f20:	c2 43 15 12 	mov.b	#0,	&0x1215	;r3 As==00
    6f24:	0b 93       	tst	r11		
    6f26:	13 24       	jz	$+40     	;abs 0x6f4e
    6f28:	0e 3c       	jmp	$+30     	;abs 0x6f46
    6f2a:	4f 4b       	mov.b	r11,	r15	
    6f2c:	7f 53       	add.b	#-1,	r15	;r3 As==11
    6f2e:	6f 93       	cmp.b	#2,	r15	;r3 As==10
    6f30:	0c 2c       	jc	$+26     	;abs 0x6f4a
    6f32:	0f 42       	mov	r2,	r15	
    6f34:	32 c2       	dint			
    6f36:	03 43       	nop			
    6f38:	f2 40 45 00 d9 11 	mov.b	#69,	&0x11d9	;#0x0045
    6f3e:	d2 43 15 12 	mov.b	#1,	&0x1215	;r3 As==01
    6f42:	3f f2       	and	#8,	r15	;r2 As==11
    6f44:	04 24       	jz	$+10     	;abs 0x6f4e
    6f46:	32 d2       	eint			
    6f48:	02 3c       	jmp	$+6      	;abs 0x6f4e
    6f4a:	4b 43       	clr.b	r11		
    6f4c:	01 3c       	jmp	$+4      	;abs 0x6f50
    6f4e:	5b 43       	mov.b	#1,	r11	;r3 As==01
    6f50:	49 93       	tst.b	r9		
    6f52:	0e 24       	jz	$+30     	;abs 0x6f70
    6f54:	0f 42       	mov	r2,	r15	
    6f56:	32 c2       	dint			
    6f58:	03 43       	nop			
    6f5a:	82 4a 28 11 	mov	r10,	&0x1128	
    6f5e:	3f f2       	and	#8,	r15	;r2 As==11
    6f60:	01 24       	jz	$+4      	;abs 0x6f64
    6f62:	32 d2       	eint			
    6f64:	7f 40 12 00 	mov.b	#18,	r15	;#0x0012
    6f68:	b0 12 9c 49 	call	#0x499c	
    6f6c:	01 3c       	jmp	$+4      	;abs 0x6f70
    6f6e:	4b 43       	clr.b	r11		
    6f70:	0a 42       	mov	r2,	r10	
    6f72:	3a f2       	and	#8,	r10	;r2 As==11
    6f74:	32 c2       	dint			
    6f76:	03 43       	nop			
    6f78:	f2 90 0a 00 84 12 	cmp.b	#10,	&0x1284	;#0x000a
    6f7e:	08 20       	jnz	$+18     	;abs 0x6f90
    6f80:	b0 12 4e 50 	call	#0x504e	
    6f84:	0a 93       	tst	r10		
    6f86:	02 20       	jnz	$+6      	;abs 0x6f8c
    6f88:	30 40 9a 72 	br	#0x729a	
    6f8c:	30 40 24 72 	br	#0x7224	
    6f90:	0a 93       	tst	r10		
    6f92:	01 24       	jz	$+4      	;abs 0x6f96
    6f94:	32 d2       	eint			
    6f96:	4b 93       	tst.b	r11		
    6f98:	02 20       	jnz	$+6      	;abs 0x6f9e
    6f9a:	30 40 9a 72 	br	#0x729a	
    6f9e:	0f 42       	mov	r2,	r15	
    6fa0:	32 c2       	dint			
    6fa2:	03 43       	nop			
    6fa4:	82 43 12 18 	mov	#0,	&0x1812	;r3 As==00
    6fa8:	c2 43 d2 11 	mov.b	#0,	&0x11d2	;r3 As==00
    6fac:	d2 43 84 12 	mov.b	#1,	&0x1284	;r3 As==01
    6fb0:	3f f2       	and	#8,	r15	;r2 As==11
    6fb2:	01 24       	jz	$+4      	;abs 0x6fb6
    6fb4:	32 d2       	eint			
    6fb6:	b0 12 5a 58 	call	#0x585a	
    6fba:	0f 93       	tst	r15		
    6fbc:	02 20       	jnz	$+6      	;abs 0x6fc2
    6fbe:	30 40 9a 72 	br	#0x729a	
    6fc2:	0f 42       	mov	r2,	r15	
    6fc4:	32 c2       	dint			
    6fc6:	03 43       	nop			
    6fc8:	f2 40 09 00 84 12 	mov.b	#9,	&0x1284	;#0x0009
    6fce:	3f f2       	and	#8,	r15	;r2 As==11
    6fd0:	01 24       	jz	$+4      	;abs 0x6fd4
    6fd2:	32 d2       	eint			
    6fd4:	b0 12 50 4a 	call	#0x4a50	
    6fd8:	30 40 9a 72 	br	#0x729a	
    6fdc:	0f 42       	mov	r2,	r15	
    6fde:	3f f2       	and	#8,	r15	;r2 As==11
    6fe0:	32 c2       	dint			
    6fe2:	03 43       	nop			
    6fe4:	82 93 0e 12 	tst	&0x120e	
    6fe8:	01 24       	jz	$+4      	;abs 0x6fec
    6fea:	35 3c       	jmp	$+108    	;abs 0x7056
    6fec:	b2 40 03 00 0e 12 	mov	#3,	&0x120e	;#0x0003
    6ff2:	c2 43 00 11 	mov.b	#0,	&0x1100	;r3 As==00
    6ff6:	0f 93       	tst	r15		
    6ff8:	01 24       	jz	$+4      	;abs 0x6ffc
    6ffa:	32 d2       	eint			
    6ffc:	0b 42       	mov	r2,	r11	
    6ffe:	3b f2       	and	#8,	r11	;r2 As==11
    7000:	32 c2       	dint			
    7002:	03 43       	nop			
    7004:	d2 93 01 11 	cmp.b	#1,	&0x1101	;r3 As==01
    7008:	17 20       	jnz	$+48     	;abs 0x7038
    700a:	1f 42 0e 12 	mov	&0x120e,r15	
    700e:	0e 4f       	mov	r15,	r14	
    7010:	3e 53       	add	#-1,	r14	;r3 As==11
    7012:	2e 93       	cmp	#2,	r14	;r3 As==10
    7014:	07 2c       	jc	$+16     	;abs 0x7024
    7016:	a2 43 0e 12 	mov	#2,	&0x120e	;r3 As==10
    701a:	7f 40 14 00 	mov.b	#20,	r15	;#0x0014
    701e:	b0 12 9c 49 	call	#0x499c	
    7022:	0a 3c       	jmp	$+22     	;abs 0x7038
    7024:	3f 90 03 00 	cmp	#3,	r15	;#0x0003
    7028:	07 20       	jnz	$+16     	;abs 0x7038
    702a:	d2 42 00 11 01 11 	mov.b	&0x1100,&0x1101	
    7030:	f2 43 00 11 	mov.b	#-1,	&0x1100	;r3 As==11
    7034:	a2 42 0e 12 	mov	#4,	&0x120e	;r2 As==10
    7038:	0b 93       	tst	r11		
    703a:	01 24       	jz	$+4      	;abs 0x703e
    703c:	32 d2       	eint			
    703e:	c2 93 01 11 	tst.b	&0x1101	
    7042:	03 20       	jnz	$+8      	;abs 0x704a
    7044:	b0 12 d4 59 	call	#0x59d4	
    7048:	09 3c       	jmp	$+20     	;abs 0x705c
    704a:	0f 42       	mov	r2,	r15	
    704c:	32 c2       	dint			
    704e:	03 43       	nop			
    7050:	82 43 0e 12 	mov	#0,	&0x120e	;r3 As==00
    7054:	3f f2       	and	#8,	r15	;r2 As==11
    7056:	0f 93       	tst	r15		
    7058:	01 24       	jz	$+4      	;abs 0x705c
    705a:	32 d2       	eint			
    705c:	0f 42       	mov	r2,	r15	
    705e:	32 c2       	dint			
    7060:	03 43       	nop			
    7062:	c2 43 84 12 	mov.b	#0,	&0x1284	;r3 As==00
    7066:	c2 43 ba 11 	mov.b	#0,	&0x11ba	;r3 As==00
    706a:	3f f2       	and	#8,	r15	;r2 As==11
    706c:	01 24       	jz	$+4      	;abs 0x7070
    706e:	32 d2       	eint			
    7070:	c2 43 cb 11 	mov.b	#0,	&0x11cb	;r3 As==00
    7074:	30 40 9a 72 	br	#0x729a	
    7078:	7f 40 11 00 	mov.b	#17,	r15	;#0x0011
    707c:	30 40 96 67 	br	#0x6796	
    7080:	b0 12 b0 4f 	call	#0x4fb0	
    7084:	4f 93       	tst.b	r15		
    7086:	02 20       	jnz	$+6      	;abs 0x708c
    7088:	30 40 9a 72 	br	#0x729a	
    708c:	82 93 b4 11 	tst	&0x11b4	
    7090:	02 24       	jz	$+6      	;abs 0x7096
    7092:	30 40 9a 72 	br	#0x729a	
    7096:	82 93 fa 17 	tst	&0x17fa	
    709a:	02 24       	jz	$+6      	;abs 0x70a0
    709c:	30 40 9a 72 	br	#0x729a	
    70a0:	0b 42       	mov	r2,	r11	
    70a2:	3b f2       	and	#8,	r11	;r2 As==11
    70a4:	32 c2       	dint			
    70a6:	03 43       	nop			
    70a8:	a2 92 0e 12 	cmp	#4,	&0x120e	;r2 As==10
    70ac:	2b 20       	jnz	$+88     	;abs 0x7104
    70ae:	c2 93 01 11 	tst.b	&0x1101	
    70b2:	28 20       	jnz	$+82     	;abs 0x7104
    70b4:	5e 42 03 11 	mov.b	&0x1103,r14	
    70b8:	7e 93       	cmp.b	#-1,	r14	;r3 As==11
    70ba:	0b 20       	jnz	$+24     	;abs 0x70d2
    70bc:	d2 43 01 11 	mov.b	#1,	&0x1101	;r3 As==01
    70c0:	82 43 0e 12 	mov	#0,	&0x120e	;r3 As==00
    70c4:	d2 43 78 00 	mov.b	#1,	&0x0078	;r3 As==01
    70c8:	b0 12 1a 47 	call	#0x471a	
    70cc:	b0 12 fc 46 	call	#0x46fc	
    70d0:	17 3c       	jmp	$+48     	;abs 0x7100
    70d2:	4f 4e       	mov.b	r14,	r15	
    70d4:	5d 4f f4 17 	mov.b	6132(r15),r13	;0x17f4(r15)
    70d8:	c2 4d 03 11 	mov.b	r13,	&0x1103	
    70dc:	7d 93       	cmp.b	#-1,	r13	;r3 As==11
    70de:	02 20       	jnz	$+6      	;abs 0x70e4
    70e0:	f2 43 02 11 	mov.b	#-1,	&0x1102	;r3 As==11
    70e4:	ff 43 f4 17 	mov.b	#-1,	6132(r15);r3 As==11, 0x17f4(r15)
    70e8:	c2 4e 00 11 	mov.b	r14,	&0x1100	
    70ec:	f2 43 01 11 	mov.b	#-1,	&0x1101	;r3 As==11
    70f0:	a2 43 0e 12 	mov	#2,	&0x120e	;r3 As==10
    70f4:	7f 40 14 00 	mov.b	#20,	r15	;#0x0014
    70f8:	b0 12 9c 49 	call	#0x499c	
    70fc:	d2 43 78 00 	mov.b	#1,	&0x0078	;r3 As==01
    7100:	b0 12 1a 47 	call	#0x471a	
    7104:	0b 93       	tst	r11		
    7106:	c9 24       	jz	$+404    	;abs 0x729a
    7108:	8d 3c       	jmp	$+284    	;abs 0x7224
    710a:	82 43 2e 11 	mov	#0,	&0x112e	;r3 As==00
    710e:	0f 42       	mov	r2,	r15	
    7110:	32 c2       	dint			
    7112:	03 43       	nop			
    7114:	1e 42 28 11 	mov	&0x1128,r14	
    7118:	3f f2       	and	#8,	r15	;r2 As==11
    711a:	01 24       	jz	$+4      	;abs 0x711e
    711c:	32 d2       	eint			
    711e:	c2 93 26 11 	tst.b	&0x1126	
    7122:	02 24       	jz	$+6      	;abs 0x7128
    7124:	3e 40 03 00 	mov	#3,	r14	;#0x0003
    7128:	1c 42 30 11 	mov	&0x1130,r12	
    712c:	c2 93 24 11 	tst.b	&0x1124	
    7130:	b4 20       	jnz	$+362    	;abs 0x729a
    7132:	0e 93       	tst	r14		
    7134:	03 24       	jz	$+8      	;abs 0x713c
    7136:	b0 12 c4 4e 	call	#0x4ec4	
    713a:	1c 3c       	jmp	$+58     	;abs 0x7174
    713c:	0e 42       	mov	r2,	r14	
    713e:	3e f2       	and	#8,	r14	;r2 As==11
    7140:	32 c2       	dint			
    7142:	03 43       	nop			
    7144:	5d 42 85 12 	mov.b	&0x1285,r13	
    7148:	4f 4d       	mov.b	r13,	r15	
    714a:	0f 5f       	rla	r15		
    714c:	1c 9f 9a 11 	cmp	4506(r15),r12	;0x119a(r15)
    7150:	0e 20       	jnz	$+30     	;abs 0x716e
    7152:	4f 4d       	mov.b	r13,	r15	
    7154:	5f 53       	inc.b	r15		
    7156:	c2 4f 85 12 	mov.b	r15,	&0x1285	
    715a:	7f 90 0c 00 	cmp.b	#12,	r15	;#0x000c
    715e:	02 28       	jnc	$+6      	;abs 0x7164
    7160:	c2 43 85 12 	mov.b	#0,	&0x1285	;r3 As==00
    7164:	c2 93 cb 11 	tst.b	&0x11cb	
    7168:	02 24       	jz	$+6      	;abs 0x716e
    716a:	c2 43 cb 11 	mov.b	#0,	&0x11cb	;r3 As==00
    716e:	0e 93       	tst	r14		
    7170:	01 24       	jz	$+4      	;abs 0x7174
    7172:	32 d2       	eint			
    7174:	4f 43       	clr.b	r15		
    7176:	30 40 96 67 	br	#0x6796	
    717a:	0f 42       	mov	r2,	r15	
    717c:	32 c2       	dint			
    717e:	03 43       	nop			
    7180:	5e 42 20 11 	mov.b	&0x1120,r14	
    7184:	1a 42 1e 11 	mov	&0x111e,r10	
    7188:	58 42 75 11 	mov.b	&0x1175,r8	
    718c:	3f f2       	and	#8,	r15	;r2 As==11
    718e:	01 24       	jz	$+4      	;abs 0x7192
    7190:	32 d2       	eint			
    7192:	4e 93       	tst.b	r14		
    7194:	2f 20       	jnz	$+96     	;abs 0x71f4
    7196:	09 42       	mov	r2,	r9	
    7198:	39 f2       	and	#8,	r9	;r2 As==11
    719a:	32 c2       	dint			
    719c:	03 43       	nop			
    719e:	c2 93 72 11 	tst.b	&0x1172	
    71a2:	21 20       	jnz	$+68     	;abs 0x71e6
    71a4:	5e 42 5c 11 	mov.b	&0x115c,r14	
    71a8:	4f 4e       	mov.b	r14,	r15	
    71aa:	0f 5f       	rla	r15		
    71ac:	3f 50 ee 11 	add	#4590,	r15	;#0x11ee
    71b0:	2b 4f       	mov	@r15,	r11	
    71b2:	8f 4a 00 00 	mov	r10,	0(r15)	;0x0000(r15)
    71b6:	4f 4e       	mov.b	r14,	r15	
    71b8:	5f 53       	inc.b	r15		
    71ba:	c2 4f 5c 11 	mov.b	r15,	&0x115c	
    71be:	7f 90 0c 00 	cmp.b	#12,	r15	;#0x000c
    71c2:	02 28       	jnc	$+6      	;abs 0x71c8
    71c4:	c2 43 5c 11 	mov.b	#0,	&0x115c	;r3 As==00
    71c8:	d2 92 14 18 5c 11 	cmp.b	&0x1814,&0x115c	
    71ce:	02 20       	jnz	$+6      	;abs 0x71d4
    71d0:	d2 43 72 11 	mov.b	#1,	&0x1172	;r3 As==01
    71d4:	c2 93 5e 11 	tst.b	&0x115e	
    71d8:	09 20       	jnz	$+20     	;abs 0x71ec
    71da:	5f 43       	mov.b	#1,	r15	;r3 As==01
    71dc:	b0 12 9c 49 	call	#0x499c	
    71e0:	d2 43 5e 11 	mov.b	#1,	&0x115e	;r3 As==01
    71e4:	03 3c       	jmp	$+8      	;abs 0x71ec
    71e6:	b0 12 c4 4e 	call	#0x4ec4	
    71ea:	0b 4a       	mov	r10,	r11	
    71ec:	09 93       	tst	r9		
    71ee:	03 24       	jz	$+8      	;abs 0x71f6
    71f0:	32 d2       	eint			
    71f2:	01 3c       	jmp	$+4      	;abs 0x71f6
    71f4:	0b 4a       	mov	r10,	r11	
    71f6:	0e 42       	mov	r2,	r14	
    71f8:	3e f2       	and	#8,	r14	;r2 As==11
    71fa:	32 c2       	dint			
    71fc:	03 43       	nop			
    71fe:	4f 48       	mov.b	r8,	r15	
    7200:	0f 5f       	rla	r15		
    7202:	8f 4b 06 11 	mov	r11,	4358(r15);0x1106(r15)
    7206:	5f 42 34 11 	mov.b	&0x1134,r15	
    720a:	48 93       	tst.b	r8		
    720c:	03 24       	jz	$+8      	;abs 0x7214
    720e:	7f f0 fb ff 	and.b	#-5,	r15	;#0xfffb
    7212:	02 3c       	jmp	$+6      	;abs 0x7218
    7214:	7f f0 fd ff 	and.b	#-3,	r15	;#0xfffd
    7218:	c2 4f 34 11 	mov.b	r15,	&0x1134	
    721c:	c2 43 22 11 	mov.b	#0,	&0x1122	;r3 As==00
    7220:	0e 93       	tst	r14		
    7222:	3b 24       	jz	$+120    	;abs 0x729a
    7224:	32 d2       	eint			
    7226:	39 3c       	jmp	$+116    	;abs 0x729a
    7228:	0f 42       	mov	r2,	r15	
    722a:	32 c2       	dint			
    722c:	03 43       	nop			
    722e:	d2 42 00 11 01 11 	mov.b	&0x1100,&0x1101	
    7234:	f2 43 00 11 	mov.b	#-1,	&0x1100	;r3 As==11
    7238:	a2 42 0e 12 	mov	#4,	&0x120e	;r2 As==10
    723c:	3f f2       	and	#8,	r15	;r2 As==11
    723e:	01 24       	jz	$+4      	;abs 0x7242
    7240:	32 d2       	eint			
    7242:	c2 93 01 11 	tst.b	&0x1101	
    7246:	29 20       	jnz	$+84     	;abs 0x729a
    7248:	b0 12 d4 59 	call	#0x59d4	
    724c:	26 3c       	jmp	$+78     	;abs 0x729a
    724e:	0f 42       	mov	r2,	r15	
    7250:	32 c2       	dint			
    7252:	03 43       	nop			
    7254:	5e 42 31 00 	mov.b	&0x0031,r14	
    7258:	7e e0 10 00 	xor.b	#16,	r14	;#0x0010
    725c:	c2 4e 31 00 	mov.b	r14,	&0x0031	
    7260:	3f f2       	and	#8,	r15	;r2 As==11
    7262:	0f 93       	tst	r15		
    7264:	1a 24       	jz	$+54     	;abs 0x729a
    7266:	de 3f       	jmp	$-66     	;abs 0x7224
    7268:	5f 42 f8 17 	mov.b	&0x17f8,r15	
    726c:	0e 42       	mov	r2,	r14	
    726e:	3e f2       	and	#8,	r14	;r2 As==11
    7270:	32 c2       	dint			
    7272:	03 43       	nop			
    7274:	7f 93       	cmp.b	#-1,	r15	;r3 As==11
    7276:	02 24       	jz	$+6      	;abs 0x727c
    7278:	30 40 70 6c 	br	#0x6c70	
    727c:	30 40 76 6c 	br	#0x6c76	
    7280:	0b 93       	tst	r11		
    7282:	02 34       	jge	$+6      	;abs 0x7288
    7284:	30 40 aa 6d 	br	#0x6daa	
    7288:	02 24       	jz	$+6      	;abs 0x728e
    728a:	30 40 b2 6d 	br	#0x6db2	
    728e:	1a 93       	cmp	#1,	r10	;r3 As==01
    7290:	02 2c       	jc	$+6      	;abs 0x7296
    7292:	30 40 aa 6d 	br	#0x6daa	
    7296:	30 40 b2 6d 	br	#0x6db2	
    729a:	31 52       	add	#8,	r1	;r2 As==11
    729c:	34 41       	pop	r4		
    729e:	35 41       	pop	r5		
    72a0:	36 41       	pop	r6		
    72a2:	37 41       	pop	r7		
    72a4:	38 41       	pop	r8		
    72a6:	39 41       	pop	r9		
    72a8:	3a 41       	pop	r10		
    72aa:	3b 41       	pop	r11		
    72ac:	30 41       	ret			

000072ae <RealMainP__Scheduler__runNextTask>:
    72ae:	f2 93 e9 17 	cmp.b	#-1,	&0x17e9	;r3 As==11
    72b2:	03 24       	jz	$+8      	;abs 0x72ba
    72b4:	b0 12 16 4f 	call	#0x4f16	
    72b8:	01 3c       	jmp	$+4      	;abs 0x72bc
    72ba:	7f 43       	mov.b	#-1,	r15	;r3 As==11
    72bc:	c2 4f c4 11 	mov.b	r15,	&0x11c4	
    72c0:	7f 93       	cmp.b	#-1,	r15	;r3 As==11
    72c2:	04 24       	jz	$+10     	;abs 0x72cc
    72c4:	b0 12 02 65 	call	#0x6502	
    72c8:	5f 43       	mov.b	#1,	r15	;r3 As==01
    72ca:	30 41       	ret			
    72cc:	4f 43       	clr.b	r15		
    72ce:	30 41       	ret			

000072d0 <__nesc_atomic_start>:
    72d0:	0f 42       	mov	r2,	r15	
    72d2:	32 c2       	dint			
    72d4:	03 43       	nop			
    72d6:	3f f2       	and	#8,	r15	;r2 As==11
    72d8:	30 41       	ret			

000072da <__nesc_atomic_end>:
    72da:	0f 93       	tst	r15		
    72dc:	01 24       	jz	$+4      	;abs 0x72e0
    72de:	32 d2       	eint			
    72e0:	30 41       	ret			

000072e2 <sig_TIMERA0_VECTOR>:
    72e2:	0f 12       	push	r15		
    72e4:	0e 12       	push	r14		
    72e6:	0d 12       	push	r13		
    72e8:	0c 12       	push	r12		
    72ea:	4f 43       	clr.b	r15		
    72ec:	b0 12 74 4f 	call	#0x4f74	
    72f0:	3c 41       	pop	r12		
    72f2:	3d 41       	pop	r13		
    72f4:	3e 41       	pop	r14		
    72f6:	3f 41       	pop	r15		
    72f8:	b1 c0 f0 00 00 00 	bic	#240,	0(r1)	;#0x00f0, 0x0000(r1)
    72fe:	00 13       	reti			

00007300 <sig_TIMERA1_VECTOR>:
    7300:	0f 12       	push	r15		
    7302:	0e 12       	push	r14		
    7304:	0d 12       	push	r13		
    7306:	0c 12       	push	r12		
    7308:	1f 42 2e 01 	mov	&0x012e,r15	
    730c:	4f 4f       	mov.b	r15,	r15	
    730e:	12 c3       	clrc			
    7310:	4f 10       	rrc.b	r15		
    7312:	b0 12 74 4f 	call	#0x4f74	
    7316:	3c 41       	pop	r12		
    7318:	3d 41       	pop	r13		
    731a:	3e 41       	pop	r14		
    731c:	3f 41       	pop	r15		
    731e:	b1 c0 f0 00 00 00 	bic	#240,	0(r1)	;#0x00f0, 0x0000(r1)
    7324:	00 13       	reti			

00007326 <sig_TIMERB0_VECTOR>:
    7326:	0f 12       	push	r15		
    7328:	0e 12       	push	r14		
    732a:	0d 12       	push	r13		
    732c:	0c 12       	push	r12		
    732e:	4f 43       	clr.b	r15		
    7330:	b0 12 30 60 	call	#0x6030	
    7334:	3c 41       	pop	r12		
    7336:	3d 41       	pop	r13		
    7338:	3e 41       	pop	r14		
    733a:	3f 41       	pop	r15		
    733c:	b1 c0 f0 00 00 00 	bic	#240,	0(r1)	;#0x00f0, 0x0000(r1)
    7342:	00 13       	reti			

00007344 <sig_TIMERB1_VECTOR>:
    7344:	0f 12       	push	r15		
    7346:	0e 12       	push	r14		
    7348:	0d 12       	push	r13		
    734a:	0c 12       	push	r12		
    734c:	1f 42 1e 01 	mov	&0x011e,r15	
    7350:	4f 4f       	mov.b	r15,	r15	
    7352:	12 c3       	clrc			
    7354:	4f 10       	rrc.b	r15		
    7356:	b0 12 30 60 	call	#0x6030	
    735a:	3c 41       	pop	r12		
    735c:	3d 41       	pop	r13		
    735e:	3e 41       	pop	r14		
    7360:	3f 41       	pop	r15		
    7362:	b1 c0 f0 00 00 00 	bic	#240,	0(r1)	;#0x00f0, 0x0000(r1)
    7368:	00 13       	reti			

0000736a <sig_PORT1_VECTOR>:
    736a:	0f 12       	push	r15		
    736c:	0e 12       	push	r14		
    736e:	0d 12       	push	r13		
    7370:	0c 12       	push	r12		
    7372:	21 83       	decd	r1		
    7374:	5e 42 23 00 	mov.b	&0x0023,r14	
    7378:	5f 42 25 00 	mov.b	&0x0025,r15	
    737c:	4f fe       	and.b	r14,	r15	
    737e:	c1 4f 00 00 	mov.b	r15,	0(r1)	;0x0000(r1)
    7382:	6f 41       	mov.b	@r1,	r15	
    7384:	1f f3       	and	#1,	r15	;r3 As==01
    7386:	0e 24       	jz	$+30     	;abs 0x73a4
    7388:	f2 f0 fe ff 23 00 	and.b	#-2,	&0x0023	;#0xfffe
    738e:	92 93 8e 11 	cmp	#1,	&0x118e	;r3 As==01
    7392:	05 20       	jnz	$+12     	;abs 0x739e
    7394:	a2 43 8e 11 	mov	#2,	&0x118e	;r3 As==10
    7398:	b0 12 7e 5c 	call	#0x5c7e	
    739c:	51 3c       	jmp	$+164    	;abs 0x7440
    739e:	d2 53 95 11 	inc.b	&0x1195	
    73a2:	4e 3c       	jmp	$+158    	;abs 0x7440
    73a4:	6f 41       	mov.b	@r1,	r15	
    73a6:	2f f3       	and	#2,	r15	;r3 As==10
    73a8:	05 24       	jz	$+12     	;abs 0x73b4
    73aa:	5f 42 23 00 	mov.b	&0x0023,r15	
    73ae:	7f f0 fd ff 	and.b	#-3,	r15	;#0xfffd
    73b2:	44 3c       	jmp	$+138    	;abs 0x743c
    73b4:	6f 41       	mov.b	@r1,	r15	
    73b6:	2f f2       	and	#4,	r15	;r2 As==10
    73b8:	05 24       	jz	$+12     	;abs 0x73c4
    73ba:	5f 42 23 00 	mov.b	&0x0023,r15	
    73be:	7f f0 fb ff 	and.b	#-5,	r15	;#0xfffb
    73c2:	3c 3c       	jmp	$+122    	;abs 0x743c
    73c4:	6f 41       	mov.b	@r1,	r15	
    73c6:	3f f2       	and	#8,	r15	;r2 As==11
    73c8:	05 24       	jz	$+12     	;abs 0x73d4
    73ca:	5f 42 23 00 	mov.b	&0x0023,r15	
    73ce:	7f f0 f7 ff 	and.b	#-9,	r15	;#0xfff7
    73d2:	34 3c       	jmp	$+106    	;abs 0x743c
    73d4:	6f 41       	mov.b	@r1,	r15	
    73d6:	3f f0 10 00 	and	#16,	r15	;#0x0010
    73da:	17 24       	jz	$+48     	;abs 0x740a
    73dc:	f2 f0 ef ff 23 00 	and.b	#-17,	&0x0023	;#0xffef
    73e2:	a2 42 4e 11 	mov	#4,	&0x114e	;r2 As==10
    73e6:	f2 f0 ef ff 25 00 	and.b	#-17,	&0x0025	;#0xffef
    73ec:	0e 43       	clr	r14		
    73ee:	7f 40 1d 00 	mov.b	#29,	r15	;#0x001d
    73f2:	b0 12 b4 55 	call	#0x55b4	
    73f6:	b0 12 8a 57 	call	#0x578a	
    73fa:	b0 12 9a 4b 	call	#0x4b9a	
    73fe:	b0 12 62 4b 	call	#0x4b62	
    7402:	6f 43       	mov.b	#2,	r15	;r3 As==10
    7404:	b0 12 9c 49 	call	#0x499c	
    7408:	1b 3c       	jmp	$+56     	;abs 0x7440
    740a:	6f 41       	mov.b	@r1,	r15	
    740c:	3f f0 20 00 	and	#32,	r15	;#0x0020
    7410:	05 24       	jz	$+12     	;abs 0x741c
    7412:	5f 42 23 00 	mov.b	&0x0023,r15	
    7416:	7f f0 df ff 	and.b	#-33,	r15	;#0xffdf
    741a:	10 3c       	jmp	$+34     	;abs 0x743c
    741c:	6f 41       	mov.b	@r1,	r15	
    741e:	3f f0 40 00 	and	#64,	r15	;#0x0040
    7422:	05 24       	jz	$+12     	;abs 0x742e
    7424:	5f 42 23 00 	mov.b	&0x0023,r15	
    7428:	7f f0 bf ff 	and.b	#-65,	r15	;#0xffbf
    742c:	07 3c       	jmp	$+16     	;abs 0x743c
    742e:	6f 41       	mov.b	@r1,	r15	
    7430:	4f 93       	tst.b	r15		
    7432:	06 34       	jge	$+14     	;abs 0x7440
    7434:	5f 42 23 00 	mov.b	&0x0023,r15	
    7438:	7f f0 7f 00 	and.b	#127,	r15	;#0x007f
    743c:	c2 4f 23 00 	mov.b	r15,	&0x0023	
    7440:	21 53       	incd	r1		
    7442:	3c 41       	pop	r12		
    7444:	3d 41       	pop	r13		
    7446:	3e 41       	pop	r14		
    7448:	3f 41       	pop	r15		
    744a:	b1 c0 f0 00 00 00 	bic	#240,	0(r1)	;#0x00f0, 0x0000(r1)
    7450:	00 13       	reti			

00007452 <sig_PORT2_VECTOR>:
    7452:	0f 12       	push	r15		
    7454:	0e 12       	push	r14		
    7456:	21 83       	decd	r1		
    7458:	5e 42 2b 00 	mov.b	&0x002b,r14	
    745c:	5f 42 2d 00 	mov.b	&0x002d,r15	
    7460:	4f fe       	and.b	r14,	r15	
    7462:	c1 4f 00 00 	mov.b	r15,	0(r1)	;0x0000(r1)
    7466:	6f 41       	mov.b	@r1,	r15	
    7468:	1f f3       	and	#1,	r15	;r3 As==01
    746a:	05 24       	jz	$+12     	;abs 0x7476
    746c:	5f 42 2b 00 	mov.b	&0x002b,r15	
    7470:	7f f0 fe ff 	and.b	#-2,	r15	;#0xfffe
    7474:	3a 3c       	jmp	$+118    	;abs 0x74ea
    7476:	6f 41       	mov.b	@r1,	r15	
    7478:	2f f3       	and	#2,	r15	;r3 As==10
    747a:	05 24       	jz	$+12     	;abs 0x7486
    747c:	5f 42 2b 00 	mov.b	&0x002b,r15	
    7480:	7f f0 fd ff 	and.b	#-3,	r15	;#0xfffd
    7484:	32 3c       	jmp	$+102    	;abs 0x74ea
    7486:	6f 41       	mov.b	@r1,	r15	
    7488:	2f f2       	and	#4,	r15	;r2 As==10
    748a:	05 24       	jz	$+12     	;abs 0x7496
    748c:	5f 42 2b 00 	mov.b	&0x002b,r15	
    7490:	7f f0 fb ff 	and.b	#-5,	r15	;#0xfffb
    7494:	2a 3c       	jmp	$+86     	;abs 0x74ea
    7496:	6f 41       	mov.b	@r1,	r15	
    7498:	3f f2       	and	#8,	r15	;r2 As==11
    749a:	05 24       	jz	$+12     	;abs 0x74a6
    749c:	5f 42 2b 00 	mov.b	&0x002b,r15	
    74a0:	7f f0 f7 ff 	and.b	#-9,	r15	;#0xfff7
    74a4:	22 3c       	jmp	$+70     	;abs 0x74ea
    74a6:	6f 41       	mov.b	@r1,	r15	
    74a8:	3f f0 10 00 	and	#16,	r15	;#0x0010
    74ac:	05 24       	jz	$+12     	;abs 0x74b8
    74ae:	5f 42 2b 00 	mov.b	&0x002b,r15	
    74b2:	7f f0 ef ff 	and.b	#-17,	r15	;#0xffef
    74b6:	19 3c       	jmp	$+52     	;abs 0x74ea
    74b8:	6f 41       	mov.b	@r1,	r15	
    74ba:	3f f0 20 00 	and	#32,	r15	;#0x0020
    74be:	05 24       	jz	$+12     	;abs 0x74ca
    74c0:	5f 42 2b 00 	mov.b	&0x002b,r15	
    74c4:	7f f0 df ff 	and.b	#-33,	r15	;#0xffdf
    74c8:	10 3c       	jmp	$+34     	;abs 0x74ea
    74ca:	6f 41       	mov.b	@r1,	r15	
    74cc:	3f f0 40 00 	and	#64,	r15	;#0x0040
    74d0:	05 24       	jz	$+12     	;abs 0x74dc
    74d2:	5f 42 2b 00 	mov.b	&0x002b,r15	
    74d6:	7f f0 bf ff 	and.b	#-65,	r15	;#0xffbf
    74da:	07 3c       	jmp	$+16     	;abs 0x74ea
    74dc:	6f 41       	mov.b	@r1,	r15	
    74de:	4f 93       	tst.b	r15		
    74e0:	06 34       	jge	$+14     	;abs 0x74ee
    74e2:	5f 42 2b 00 	mov.b	&0x002b,r15	
    74e6:	7f f0 7f 00 	and.b	#127,	r15	;#0x007f
    74ea:	c2 4f 2b 00 	mov.b	r15,	&0x002b	
    74ee:	21 53       	incd	r1		
    74f0:	3e 41       	pop	r14		
    74f2:	3f 41       	pop	r15		
    74f4:	b1 c0 f0 00 00 00 	bic	#240,	0(r1)	;#0x00f0, 0x0000(r1)
    74fa:	00 13       	reti			

000074fc <sig_USART0RX_VECTOR>:
    74fc:	0f 12       	push	r15		
    74fe:	0e 12       	push	r14		
    7500:	0d 12       	push	r13		
    7502:	0c 12       	push	r12		
    7504:	5e 42 76 00 	mov.b	&0x0076,r14	
    7508:	82 93 b8 11 	tst	&0x11b8	
    750c:	19 24       	jz	$+52     	;abs 0x7540
    750e:	15 3c       	jmp	$+44     	;abs 0x753a
    7510:	1f 42 82 12 	mov	&0x1282,r15	
    7514:	0f 93       	tst	r15		
    7516:	04 24       	jz	$+10     	;abs 0x7520
    7518:	1f 52 ec 17 	add	&0x17ec,r15	
    751c:	cf 4e ff ff 	mov.b	r14,	-1(r15)	;0xffff(r15)
    7520:	92 92 f0 17 ec 17 	cmp	&0x17f0,&0x17ec	
    7526:	03 2c       	jc	$+8      	;abs 0x752e
    7528:	b0 12 7a 4a 	call	#0x4a7a	
    752c:	09 3c       	jmp	$+20     	;abs 0x7540
    752e:	f2 f0 bf ff 00 00 	and.b	#-65,	&0x0000	;#0xffbf
    7534:	b0 12 1c 5d 	call	#0x5d1c	
    7538:	03 3c       	jmp	$+8      	;abs 0x7540
    753a:	c2 93 13 11 	tst.b	&0x1113	
    753e:	e8 27       	jz	$-46     	;abs 0x7510
    7540:	3c 41       	pop	r12		
    7542:	3d 41       	pop	r13		
    7544:	3e 41       	pop	r14		
    7546:	3f 41       	pop	r15		
    7548:	b1 c0 f0 00 00 00 	bic	#240,	0(r1)	;#0x00f0, 0x0000(r1)
    754e:	00 13       	reti			

00007550 <sig_USART0TX_VECTOR>:
    7550:	0f 12       	push	r15		
    7552:	5f 42 70 00 	mov.b	&0x0070,r15	
    7556:	3f f0 20 00 	and	#32,	r15	;#0x0020
    755a:	06 24       	jz	$+14     	;abs 0x7568
    755c:	5f 42 70 00 	mov.b	&0x0070,r15	
    7560:	2f f2       	and	#4,	r15	;r2 As==10
    7562:	02 24       	jz	$+6      	;abs 0x7568
    7564:	5f 42 70 00 	mov.b	&0x0070,r15	
    7568:	3f 41       	pop	r15		
    756a:	b1 c0 f0 00 00 00 	bic	#240,	0(r1)	;#0x00f0, 0x0000(r1)
    7570:	00 13       	reti			

00007572 <sig_USART1RX_VECTOR>:
    7572:	0f 12       	push	r15		
    7574:	0e 12       	push	r14		
    7576:	0d 12       	push	r13		
    7578:	0c 12       	push	r12		
    757a:	5e 42 7e 00 	mov.b	&0x007e,r14	
    757e:	82 93 0e 12 	tst	&0x120e	
    7582:	2e 24       	jz	$+94     	;abs 0x75e0
    7584:	2a 3c       	jmp	$+86     	;abs 0x75da
    7586:	1d 42 b4 11 	mov	&0x11b4,r13	
    758a:	0d 93       	tst	r13		
    758c:	0e 24       	jz	$+30     	;abs 0x75aa
    758e:	1f 42 80 12 	mov	&0x1280,r15	
    7592:	0d 5f       	add	r15,	r13	
    7594:	cd 4e 00 00 	mov.b	r14,	0(r13)	;0x0000(r13)
    7598:	1f 53       	inc	r15		
    759a:	82 4f 80 12 	mov	r15,	&0x1280	
    759e:	1f 92 16 12 	cmp	&0x1216,r15	
    75a2:	1e 28       	jnc	$+62     	;abs 0x75e0
    75a4:	82 43 b4 11 	mov	#0,	&0x11b4	;r3 As==00
    75a8:	1b 3c       	jmp	$+56     	;abs 0x75e0
    75aa:	7e 90 7e 00 	cmp.b	#126,	r14	;#0x007e
    75ae:	03 20       	jnz	$+8      	;abs 0x75b6
    75b0:	4e 43       	clr.b	r14		
    75b2:	5f 43       	mov.b	#1,	r15	;r3 As==01
    75b4:	0f 3c       	jmp	$+32     	;abs 0x75d4
    75b6:	7e 90 7d 00 	cmp.b	#125,	r14	;#0x007d
    75ba:	03 20       	jnz	$+8      	;abs 0x75c2
    75bc:	e2 d3 1a 11 	bis.b	#2,	&0x111a	;r3 As==10
    75c0:	0f 3c       	jmp	$+32     	;abs 0x75e0
    75c2:	e2 b3 1a 11 	bit.b	#2,	&0x111a	;r3 As==10
    75c6:	05 24       	jz	$+12     	;abs 0x75d2
    75c8:	f2 f0 fd ff 1a 11 	and.b	#-3,	&0x111a	;#0xfffd
    75ce:	7e e0 20 00 	xor.b	#32,	r14	;#0x0020
    75d2:	4f 43       	clr.b	r15		
    75d4:	b0 12 70 50 	call	#0x5070	
    75d8:	03 3c       	jmp	$+8      	;abs 0x75e0
    75da:	c2 93 01 11 	tst.b	&0x1101	
    75de:	d3 27       	jz	$-88     	;abs 0x7586
    75e0:	3c 41       	pop	r12		
    75e2:	3d 41       	pop	r13		
    75e4:	3e 41       	pop	r14		
    75e6:	3f 41       	pop	r15		
    75e8:	b1 c0 f0 00 00 00 	bic	#240,	0(r1)	;#0x00f0, 0x0000(r1)
    75ee:	00 13       	reti			

000075f0 <sig_USART1TX_VECTOR>:
    75f0:	0f 12       	push	r15		
    75f2:	0e 12       	push	r14		
    75f4:	0d 12       	push	r13		
    75f6:	0c 12       	push	r12		
    75f8:	82 93 0e 12 	tst	&0x120e	
    75fc:	1b 24       	jz	$+56     	;abs 0x7634
    75fe:	17 3c       	jmp	$+48     	;abs 0x762e
    7600:	c2 93 56 11 	tst.b	&0x1156	
    7604:	0f 20       	jnz	$+32     	;abs 0x7624
    7606:	1f 42 c0 11 	mov	&0x11c0,r15	
    760a:	1f 92 88 12 	cmp	&0x1288,r15	
    760e:	0a 2c       	jc	$+22     	;abs 0x7624
    7610:	1e 42 fa 17 	mov	&0x17fa,r14	
    7614:	0e 5f       	add	r15,	r14	
    7616:	6e 4e       	mov.b	@r14,	r14	
    7618:	1f 53       	inc	r15		
    761a:	82 4f c0 11 	mov	r15,	&0x11c0	
    761e:	c2 4e 7f 00 	mov.b	r14,	&0x007f	
    7622:	08 3c       	jmp	$+18     	;abs 0x7634
    7624:	82 43 fa 17 	mov	#0,	&0x17fa	;r3 As==00
    7628:	b0 12 a0 58 	call	#0x58a0	
    762c:	03 3c       	jmp	$+8      	;abs 0x7634
    762e:	c2 93 01 11 	tst.b	&0x1101	
    7632:	e6 27       	jz	$-50     	;abs 0x7600
    7634:	3c 41       	pop	r12		
    7636:	3d 41       	pop	r13		
    7638:	3e 41       	pop	r14		
    763a:	3f 41       	pop	r15		
    763c:	b1 c0 f0 00 00 00 	bic	#240,	0(r1)	;#0x00f0, 0x0000(r1)
    7642:	00 13       	reti			

00007644 <BaseStationP__receive.isra.159>:
    7644:	0b 12       	push	r11		
    7646:	0a 12       	push	r10		
    7648:	09 12       	push	r9		
    764a:	09 4f       	mov	r15,	r9	
    764c:	0b 42       	mov	r2,	r11	
    764e:	3b f2       	and	#8,	r11	;r2 As==11
    7650:	32 c2       	dint			
    7652:	03 43       	nop			
    7654:	c2 93 cb 11 	tst.b	&0x11cb	
    7658:	1f 20       	jnz	$+64     	;abs 0x7698
    765a:	5d 42 73 11 	mov.b	&0x1173,r13	
    765e:	0e 4d       	mov	r13,	r14	
    7660:	0e 5e       	rla	r14		
    7662:	3e 50 9a 11 	add	#4506,	r14	;#0x119a
    7666:	2a 4e       	mov	@r14,	r10	
    7668:	8e 4f 00 00 	mov	r15,	0(r14)	;0x0000(r14)
    766c:	3e 40 0c 00 	mov	#12,	r14	;#0x000c
    7670:	0f 4d       	mov	r13,	r15	
    7672:	1f 53       	inc	r15		
    7674:	b0 12 ae 77 	call	#0x77ae	
    7678:	c2 4f 73 11 	mov.b	r15,	&0x1173	
    767c:	c2 9f 85 12 	cmp.b	r15,	&0x1285	
    7680:	02 20       	jnz	$+6      	;abs 0x7686
    7682:	d2 43 cb 11 	mov.b	#1,	&0x11cb	;r3 As==01
    7686:	c2 93 f2 17 	tst.b	&0x17f2	
    768a:	09 20       	jnz	$+20     	;abs 0x769e
    768c:	4f 43       	clr.b	r15		
    768e:	b0 12 9c 49 	call	#0x499c	
    7692:	d2 43 f2 17 	mov.b	#1,	&0x17f2	;r3 As==01
    7696:	03 3c       	jmp	$+8      	;abs 0x769e
    7698:	b0 12 c4 4e 	call	#0x4ec4	
    769c:	0a 49       	mov	r9,	r10	
    769e:	0b 93       	tst	r11		
    76a0:	01 24       	jz	$+4      	;abs 0x76a4
    76a2:	32 d2       	eint			
    76a4:	0f 4a       	mov	r10,	r15	
    76a6:	39 41       	pop	r9		
    76a8:	3a 41       	pop	r10		
    76aa:	3b 41       	pop	r11		
    76ac:	30 41       	ret			

000076ae <__umulsidi3>:
    76ae:	0b 12       	push	r11		
    76b0:	0a 12       	push	r10		
    76b2:	09 12       	push	r9		
    76b4:	08 12       	push	r8		
    76b6:	07 12       	push	r7		
    76b8:	06 12       	push	r6		
    76ba:	05 12       	push	r5		
    76bc:	04 12       	push	r4		
    76be:	08 4c       	mov	r12,	r8	
    76c0:	09 4d       	mov	r13,	r9	
    76c2:	0a 43       	clr	r10		
    76c4:	0b 43       	clr	r11		
    76c6:	0c 4e       	mov	r14,	r12	
    76c8:	0d 4f       	mov	r15,	r13	
    76ca:	0e 43       	clr	r14		
    76cc:	0f 43       	clr	r15		
    76ce:	b0 12 1a 77 	call	#0x771a	
    76d2:	34 41       	pop	r4		
    76d4:	35 41       	pop	r5		
    76d6:	36 41       	pop	r6		
    76d8:	37 41       	pop	r7		
    76da:	38 41       	pop	r8		
    76dc:	39 41       	pop	r9		
    76de:	3a 41       	pop	r10		
    76e0:	3b 41       	pop	r11		
    76e2:	30 41       	ret			

000076e4 <__muldi3>:
    76e4:	0b 12       	push	r11		
    76e6:	0a 12       	push	r10		
    76e8:	09 12       	push	r9		
    76ea:	08 12       	push	r8		
    76ec:	07 12       	push	r7		
    76ee:	06 12       	push	r6		
    76f0:	05 12       	push	r5		
    76f2:	04 12       	push	r4		
    76f4:	18 41 12 00 	mov	18(r1),	r8	;0x0012(r1)
    76f8:	19 41 14 00 	mov	20(r1),	r9	;0x0014(r1)
    76fc:	1a 41 16 00 	mov	22(r1),	r10	;0x0016(r1)
    7700:	1b 41 18 00 	mov	24(r1),	r11	;0x0018(r1)
    7704:	b0 12 1a 77 	call	#0x771a	
    7708:	34 41       	pop	r4		
    770a:	35 41       	pop	r5		
    770c:	36 41       	pop	r6		
    770e:	37 41       	pop	r7		
    7710:	38 41       	pop	r8		
    7712:	39 41       	pop	r9		
    7714:	3a 41       	pop	r10		
    7716:	3b 41       	pop	r11		
    7718:	30 41       	ret			

0000771a <__xabi_muldi3>:
    771a:	04 43       	clr	r4		
    771c:	05 43       	clr	r5		
    771e:	06 43       	clr	r6		
    7720:	07 43       	clr	r7		
    7722:	0e 3c       	jmp	$+30     	;abs 0x7740
    7724:	12 c3       	clrc			
    7726:	0b 10       	rrc	r11		
    7728:	0a 10       	rrc	r10		
    772a:	09 10       	rrc	r9		
    772c:	08 10       	rrc	r8		
    772e:	04 28       	jnc	$+10     	;abs 0x7738
    7730:	04 5c       	add	r12,	r4	
    7732:	05 6d       	addc	r13,	r5	
    7734:	06 6e       	addc	r14,	r6	
    7736:	07 6f       	addc	r15,	r7	
    7738:	0c 5c       	rla	r12		
    773a:	0d 6d       	rlc	r13		
    773c:	0e 6e       	rlc	r14		
    773e:	0f 6f       	rlc	r15		
    7740:	08 93       	tst	r8		
    7742:	f0 23       	jnz	$-30     	;abs 0x7724
    7744:	09 93       	tst	r9		
    7746:	ee 23       	jnz	$-34     	;abs 0x7724
    7748:	0a 93       	tst	r10		
    774a:	ec 23       	jnz	$-38     	;abs 0x7724
    774c:	0b 93       	tst	r11		
    774e:	ea 23       	jnz	$-42     	;abs 0x7724
    7750:	0c 44       	mov	r4,	r12	
    7752:	0d 45       	mov	r5,	r13	
    7754:	0e 46       	mov	r6,	r14	
    7756:	0f 47       	mov	r7,	r15	
    7758:	30 41       	ret			

0000775a <__udivhi3>:
    775a:	7c 40 10 00 	mov.b	#16,	r12	;#0x0010
    775e:	0d 4e       	mov	r14,	r13	
    7760:	0e 43       	clr	r14		
    7762:	0f 5f       	rla	r15		
    7764:	0e 6e       	rlc	r14		
    7766:	0e 9d       	cmp	r13,	r14	
    7768:	02 28       	jnc	$+6      	;abs 0x776e
    776a:	0e 8d       	sub	r13,	r14	
    776c:	1f d3       	bis	#1,	r15	;r3 As==01
    776e:	1c 83       	dec	r12		
    7770:	f8 23       	jnz	$-14     	;abs 0x7762
    7772:	30 41       	ret			

00007774 <__umodhi3>:
    7774:	b0 12 5a 77 	call	#0x775a	
    7778:	0f 4e       	mov	r14,	r15	
    777a:	30 41       	ret			

0000777c <__divhi3>:
    777c:	0d 43       	clr	r13		
    777e:	0f 93       	tst	r15		
    7780:	04 34       	jge	$+10     	;abs 0x778a
    7782:	3d 40 03 00 	mov	#3,	r13	;#0x0003
    7786:	3f e3       	inv	r15		
    7788:	1f 53       	inc	r15		
    778a:	0e 93       	tst	r14		
    778c:	03 34       	jge	$+8      	;abs 0x7794
    778e:	5d e3       	xor.b	#1,	r13	;r3 As==01
    7790:	3e e3       	inv	r14		
    7792:	1e 53       	inc	r14		
    7794:	0d 12       	push	r13		
    7796:	b0 12 5a 77 	call	#0x775a	
    779a:	3d 41       	pop	r13		
    779c:	6d b3       	bit.b	#2,	r13	;r3 As==10
    779e:	02 24       	jz	$+6      	;abs 0x77a4
    77a0:	3e e3       	inv	r14		
    77a2:	1e 53       	inc	r14		
    77a4:	5d b3       	bit.b	#1,	r13	;r3 As==01
    77a6:	02 24       	jz	$+6      	;abs 0x77ac
    77a8:	3f e3       	inv	r15		
    77aa:	1f 53       	inc	r15		
    77ac:	30 41       	ret			

000077ae <__modhi3>:
    77ae:	b0 12 7c 77 	call	#0x777c	
    77b2:	0f 4e       	mov	r14,	r15	
    77b4:	30 41       	ret			

000077b6 <memcmp>:
    77b6:	0b 12       	push	r11		
    77b8:	0d 93       	tst	r13		
    77ba:	0a 24       	jz	$+22     	;abs 0x77d0
    77bc:	7b 4f       	mov.b	@r15+,	r11	
    77be:	7c 4e       	mov.b	@r14+,	r12	
    77c0:	4b 9c       	cmp.b	r12,	r11	
    77c2:	04 24       	jz	$+10     	;abs 0x77cc
    77c4:	4f 4b       	mov.b	r11,	r15	
    77c6:	4e 4c       	mov.b	r12,	r14	
    77c8:	0f 8e       	sub	r14,	r15	
    77ca:	03 3c       	jmp	$+8      	;abs 0x77d2
    77cc:	3d 53       	add	#-1,	r13	;r3 As==11
    77ce:	f4 3f       	jmp	$-22     	;abs 0x77b8
    77d0:	0f 43       	clr	r15		
    77d2:	3b 41       	pop	r11		
    77d4:	30 41       	ret			

000077d6 <memcpy>:
    77d6:	0b 12       	push	r11		
    77d8:	0a 12       	push	r10		
    77da:	09 12       	push	r9		
    77dc:	08 12       	push	r8		
    77de:	07 12       	push	r7		
    77e0:	0d 93       	tst	r13		
    77e2:	70 24       	jz	$+226    	;abs 0x78c4
    77e4:	0f 9e       	cmp	r14,	r15	
    77e6:	6e 24       	jz	$+222    	;abs 0x78c4
    77e8:	34 2c       	jc	$+106    	;abs 0x7852
    77ea:	0c 4e       	mov	r14,	r12	
    77ec:	0c df       	bis	r15,	r12	
    77ee:	1c f3       	and	#1,	r12	;r3 As==01
    77f0:	1b 24       	jz	$+56     	;abs 0x7828
    77f2:	0c 4e       	mov	r14,	r12	
    77f4:	0c ef       	xor	r15,	r12	
    77f6:	1c f3       	and	#1,	r12	;r3 As==01
    77f8:	07 20       	jnz	$+16     	;abs 0x7808
    77fa:	2d 93       	cmp	#2,	r13	;r3 As==10
    77fc:	07 28       	jnc	$+16     	;abs 0x780c
    77fe:	0b 4e       	mov	r14,	r11	
    7800:	1b f3       	and	#1,	r11	;r3 As==01
    7802:	2c 43       	mov	#2,	r12	;r3 As==10
    7804:	0c 8b       	sub	r11,	r12	
    7806:	03 3c       	jmp	$+8      	;abs 0x780e
    7808:	0c 4d       	mov	r13,	r12	
    780a:	01 3c       	jmp	$+4      	;abs 0x780e
    780c:	1c 43       	mov	#1,	r12	;r3 As==01
    780e:	0d 8c       	sub	r12,	r13	
    7810:	0a 4c       	mov	r12,	r10	
    7812:	09 4e       	mov	r14,	r9	
    7814:	0b 4f       	mov	r15,	r11	
    7816:	fb 49 00 00 	mov.b	@r9+,	0(r11)	;0x0000(r11)
    781a:	1b 53       	inc	r11		
    781c:	3a 53       	add	#-1,	r10	;r3 As==11
    781e:	fb 23       	jnz	$-8      	;abs 0x7816
    7820:	0a 4f       	mov	r15,	r10	
    7822:	0a 5c       	add	r12,	r10	
    7824:	0e 5c       	add	r12,	r14	
    7826:	01 3c       	jmp	$+4      	;abs 0x782a
    7828:	0a 4f       	mov	r15,	r10	
    782a:	0b 4d       	mov	r13,	r11	
    782c:	12 c3       	clrc			
    782e:	0b 10       	rrc	r11		
    7830:	0b 24       	jz	$+24     	;abs 0x7848
    7832:	09 4b       	mov	r11,	r9	
    7834:	08 4e       	mov	r14,	r8	
    7836:	0c 4a       	mov	r10,	r12	
    7838:	bc 48 00 00 	mov	@r8+,	0(r12)	;0x0000(r12)
    783c:	2c 53       	incd	r12		
    783e:	39 53       	add	#-1,	r9	;r3 As==11
    7840:	fb 23       	jnz	$-8      	;abs 0x7838
    7842:	0b 5b       	rla	r11		
    7844:	0e 5b       	add	r11,	r14	
    7846:	0a 5b       	add	r11,	r10	
    7848:	1d f3       	and	#1,	r13	;r3 As==01
    784a:	3c 24       	jz	$+122    	;abs 0x78c4
    784c:	ea 4e 00 00 	mov.b	@r14,	0(r10)	;0x0000(r10)
    7850:	39 3c       	jmp	$+116    	;abs 0x78c4
    7852:	0e 5d       	add	r13,	r14	
    7854:	0c 4f       	mov	r15,	r12	
    7856:	0c 5d       	add	r13,	r12	
    7858:	0b 4c       	mov	r12,	r11	
    785a:	0b de       	bis	r14,	r11	
    785c:	1b f3       	and	#1,	r11	;r3 As==01
    785e:	1b 24       	jz	$+56     	;abs 0x7896
    7860:	0b 4c       	mov	r12,	r11	
    7862:	0b ee       	xor	r14,	r11	
    7864:	1b f3       	and	#1,	r11	;r3 As==01
    7866:	06 20       	jnz	$+14     	;abs 0x7874
    7868:	3d 90 03 00 	cmp	#3,	r13	;#0x0003
    786c:	03 28       	jnc	$+8      	;abs 0x7874
    786e:	0b 4e       	mov	r14,	r11	
    7870:	1b f3       	and	#1,	r11	;r3 As==01
    7872:	01 3c       	jmp	$+4      	;abs 0x7876
    7874:	0b 4d       	mov	r13,	r11	
    7876:	0d 8b       	sub	r11,	r13	
    7878:	09 4e       	mov	r14,	r9	
    787a:	0a 4c       	mov	r12,	r10	
    787c:	08 4b       	mov	r11,	r8	
    787e:	08 8c       	sub	r12,	r8	
    7880:	3a 53       	add	#-1,	r10	;r3 As==11
    7882:	39 53       	add	#-1,	r9	;r3 As==11
    7884:	ea 49 00 00 	mov.b	@r9,	0(r10)	;0x0000(r10)
    7888:	07 4a       	mov	r10,	r7	
    788a:	07 58       	add	r8,	r7	
    788c:	f9 23       	jnz	$-12     	;abs 0x7880
    788e:	3b e3       	inv	r11		
    7890:	1b 53       	inc	r11		
    7892:	0c 5b       	add	r11,	r12	
    7894:	0e 5b       	add	r11,	r14	
    7896:	0b 4d       	mov	r13,	r11	
    7898:	12 c3       	clrc			
    789a:	0b 10       	rrc	r11		
    789c:	0e 24       	jz	$+30     	;abs 0x78ba
    789e:	0a 4b       	mov	r11,	r10	
    78a0:	08 4e       	mov	r14,	r8	
    78a2:	09 4c       	mov	r12,	r9	
    78a4:	28 83       	decd	r8		
    78a6:	29 83       	decd	r9		
    78a8:	a9 48 00 00 	mov	@r8,	0(r9)	;0x0000(r9)
    78ac:	3a 53       	add	#-1,	r10	;r3 As==11
    78ae:	fa 23       	jnz	$-10     	;abs 0x78a4
    78b0:	0a 8b       	sub	r11,	r10	
    78b2:	0b 4a       	mov	r10,	r11	
    78b4:	0b 5b       	rla	r11		
    78b6:	0e 5b       	add	r11,	r14	
    78b8:	0c 5b       	add	r11,	r12	
    78ba:	1d f3       	and	#1,	r13	;r3 As==01
    78bc:	03 24       	jz	$+8      	;abs 0x78c4
    78be:	dc 4e ff ff ff ff 	mov.b	-1(r14),-1(r12)	;0xffff(r14), 0xffff(r12)
    78c4:	37 41       	pop	r7		
    78c6:	38 41       	pop	r8		
    78c8:	39 41       	pop	r9		
    78ca:	3a 41       	pop	r10		
    78cc:	3b 41       	pop	r11		
    78ce:	30 41       	ret			

000078d0 <memset>:
    78d0:	0b 12       	push	r11		
    78d2:	0a 12       	push	r10		
    78d4:	09 12       	push	r9		
    78d6:	08 12       	push	r8		
    78d8:	3d 90 06 00 	cmp	#6,	r13	;#0x0006
    78dc:	09 2c       	jc	$+20     	;abs 0x78f0
    78de:	0c 4f       	mov	r15,	r12	
    78e0:	04 3c       	jmp	$+10     	;abs 0x78ea
    78e2:	cc 4e 00 00 	mov.b	r14,	0(r12)	;0x0000(r12)
    78e6:	1c 53       	inc	r12		
    78e8:	3d 53       	add	#-1,	r13	;r3 As==11
    78ea:	0d 93       	tst	r13		
    78ec:	fa 23       	jnz	$-10     	;abs 0x78e2
    78ee:	20 3c       	jmp	$+66     	;abs 0x7930
    78f0:	4e 4e       	mov.b	r14,	r14	
    78f2:	4b 4e       	mov.b	r14,	r11	
    78f4:	0b 93       	tst	r11		
    78f6:	03 24       	jz	$+8      	;abs 0x78fe
    78f8:	0c 4b       	mov	r11,	r12	
    78fa:	8c 10       	swpb	r12		
    78fc:	0b dc       	bis	r12,	r11	
    78fe:	1f b3       	bit	#1,	r15	;r3 As==01
    7900:	06 24       	jz	$+14     	;abs 0x790e
    7902:	3d 53       	add	#-1,	r13	;r3 As==11
    7904:	cf 4e 00 00 	mov.b	r14,	0(r15)	;0x0000(r15)
    7908:	09 4f       	mov	r15,	r9	
    790a:	19 53       	inc	r9		
    790c:	01 3c       	jmp	$+4      	;abs 0x7910
    790e:	09 4f       	mov	r15,	r9	
    7910:	0c 4d       	mov	r13,	r12	
    7912:	12 c3       	clrc			
    7914:	0c 10       	rrc	r12		
    7916:	0a 49       	mov	r9,	r10	
    7918:	08 4c       	mov	r12,	r8	
    791a:	8a 4b 00 00 	mov	r11,	0(r10)	;0x0000(r10)
    791e:	2a 53       	incd	r10		
    7920:	38 53       	add	#-1,	r8	;r3 As==11
    7922:	fb 23       	jnz	$-8      	;abs 0x791a
    7924:	0c 5c       	rla	r12		
    7926:	0c 59       	add	r9,	r12	
    7928:	1d f3       	and	#1,	r13	;r3 As==01
    792a:	02 24       	jz	$+6      	;abs 0x7930
    792c:	cc 4e 00 00 	mov.b	r14,	0(r12)	;0x0000(r12)
    7930:	38 41       	pop	r8		
    7932:	39 41       	pop	r9		
    7934:	3a 41       	pop	r10		
    7936:	3b 41       	pop	r11		
    7938:	30 41       	ret			

0000793a <_unexpected_>:
    793a:	00 13       	reti			

Disassembly of section .vectors:

0000ffe0 <__ivtbl_16>:
    ffe0:	0a 46 52 74 f0 75 72 75 6a 73 00 73 e2 72 0a 46     .FRt.urujs.s.r.F
    fff0:	50 75 fc 74 0a 46 0a 46 44 73 26 73 0a 46 00 40     Pu.t.F.FDs&s.F.@
